c__builtin__
set
p0
((lp1
S'Articles_with_unsourced_statements_from_October_2014'
p2
aS'Viral_systemic_diseases'
p3
aS'2014_Ebola_virus_epidemic_in_Sierra_Leone'
p4
aS'White_blood_cell'
p5
aS'La_Crosse_encephalitis'
p6
aS'Maculopapular_rash'
p7
aS'Bleeding_disorder'
p8
aS'Ravn_virus'
p9
aS'MedlinePlus'
p10
aS'West_Nile_fever'
p11
aS'Medicine_navs'
p12
aS'Langat_virus'
p13
aS'Interleukin_8'
p14
aS'Democratic_Republic_of_the_Congo'
p15
aS'Food_and_Drug_Administration'
p16
aS'Arthralgia'
p17
aS'Southern_Sudan'
p18
aS'Interleukin_6'
p19
aS'Lassa_fever'
p20
aS'Seoul_virus'
p21
aS'Hantavirus_hemorrhagic_fever_with_renal_syndrome'
p22
aS'Scavenge'
p23
aS'Ivy_Books'
p24
aS'Baltimore_(virus_classification)'
p25
aS'Zoonotic'
p26
aS'Sarepta_Therapeutics'
p27
aS'Arenavirus'
p28
aS'Sexual_intercourse'
p29
aS'Clomiphene'
p30
aS'Democratic_Republic_of_Congo'
p31
aS'Small_interfering_RNA'
p32
aS'Pathogen'
p33
aS'Ecchymosis'
p34
aS'Sudan_virus'
p35
aS'Extracorporeal_membrane_oxygenation'
p36
aS'Herpesviridae'
p37
aS'Disseminated_intravascular_coagulation'
p38
aS'Anxiolytic'
p39
aS'List_of_human_disease_case_fatality_rates'
p40
aS'Ta\xc3\xaf_Forest_virus'
p41
aS'Crimean\xe2\x80\x93Congo_hemorrhagic_fever'
p42
aS'Biological_life_cycle'
p43
aS'TKM-Ebola'
p44
aS'Three_prime_untranslated_region'
p45
aS'Phylogenetic_tree'
p46
aS'A80\xe2\x80\x93B34'
p47
aS'Powassan_encephalitis'
p48
aS'Dronedarone'
p49
aS'BioCryst_Pharmaceuticals'
p50
aS'Viral_cutaneous_conditions'
p51
aS'Blood_serum'
p52
aS'Republic_of_the_Congo'
p53
aS'Western_equine_encephalitis_virus'
p54
aS'Selective_estrogen_receptor_modulator'
p55
aS'DMOZ'
p56
aS'Promoter_(biology)'
p57
aS'Universal_precautions'
p58
aS'William_Close'
p59
aS'Statistical_significance'
p60
aS'Hyperlacrimation'
p61
aS'Nigeria'
p62
aS'Ebola_Syndrome'
p63
aS'Enzyme-linked_immunosorbent_assay'
p64
aS'Sheik_Umar_Khan'
p65
aS'Seroprevalence'
p66
aS'Eponymous_medical_signs_for_infectious_disease'
p67
aS'Cholera'
p68
aS'WHO'
p69
aS'Sudan'
p70
aS'Amiodarone'
p71
aS'Liver'
p72
aS'List_of_ICD-9_codes'
p73
aS'Patrick_Sawyer'
p74
aS'Poxviridae'
p75
aS'Relapsing_fever'
p76
aS'Antiemetic'
p77
aS'West_Nile_virus'
p78
aS'Myalgia'
p79
aS'Gums'
p80
aS'Shortness_of_breath'
p81
aS'Sierra_Leone'
p82
aS'Cite_pmid/24815087'
p83
aS'Texas_Health_Presbyterian_Hospital_Dallas'
p84
aS'Bundibugyo_ebolavirus'
p85
aS'Gram-negative_bacteria'
p86
aS'Melatonin'
p87
aS'EMedicine'
p88
aS'Simian_foamy_virus'
p89
aS'LJ-001'
p90
aS'Biosafety_level'
p91
aS'Plague_(disease)'
p92
aS'Protection_policy'
p93
aS'Sore_throat'
p94
aS'Molecular_clock'
p95
aS'Citation_needed'
p96
aS"5\\'_cap"
p97
aS'Crimean\xe2\x80\x93Congo_hemorrhagic_fever_virus'
p98
aS'Named_patient_programs'
p99
aS'Marburg_virus_disease'
p100
aS'Vaccine'
p101
aS'Heparin'
p102
aS'Cite_pmid/23495004'
p103
aS'Zika_fever'
p104
aS'Euthanisia'
p105
aS'Brincidofovir'
p106
aS'Favipiravir'
p107
aS'Marburg_virus'
p108
aS'Mokola_virus'
p109
aS'Ameyo_Adadevoh'
p110
aS'Verotoxin-producing_Escherichia_coli'
p111
aS'Executive_Orders'
p112
aS'Digital_object_identifier'
p113
aS'Verapamil'
p114
aS'US_Army'
p115
aS'Protein_dimer'
p116
aS'Choroiditis'
p117
aS'HIV_and_AIDS'
p118
aS'Articles_containing_potentially_dated_statements_from_September_2014'
p119
aS'2014_Ebola_virus_epidemic_in_Guinea'
p120
aS'Hematoma'
p121
aS'Machupo_virus'
p122
aS'Venezuelan_equine_encephalitis_virus'
p123
aS'DNA_antivirals'
p124
aS'Arthropod'
p125
aS'Embalming'
p126
aS'Wikimedia_sister_projects'
p127
aS'Texas'
p128
aS'Ghana'
p129
aS'Photophobia'
p130
aS'Receptor_(biochemistry)'
p131
aS'Vomiting'
p132
aS'ICD-10_Chapter_A'
p133
aS'Yellow_fever'
p134
aS'Iritis'
p135
aS'Bat'
p136
aS'Henipavirus'
p137
aS'Primate'
p138
aS'Andes_virus'
p139
aS'2014_West_Africa_Ebola_virus_outbreak'
p140
aS'Viral_disease'
p141
aS'Coagulation'
p142
aS'Gabon'
p143
aS'Translation_(biology)'
p144
aS'Sudan_ebolavirus'
p145
aS'Sodium_hypochlorite'
p146
aS'Antiretroviral_drug'
p147
aS'Animal_testing'
p148
aS'PubMed_Identifier'
p149
aS'Disinfectant'
p150
aS'Yambuku'
p151
aS'Viral_hepatitis'
p152
aS'Typhus'
p153
aS'Paramyxoviridae'
p154
aS'Reoviridae'
p155
aS'Intravenous_therapy'
p156
aS'Viral_shedding'
p157
aS'Shrew'
p158
aS'Dobrava-Belgrade_virus'
p159
aS'Western_equine_encephalomyelitis'
p160
aS"O\\'nyong\\'nyong_virus"
p161
aS'Crab-eating_Macaque'
p162
aS'Vagina'
p163
aS'Colorado_tick_fever'
p164
aS'Tom_Clancy'
p165
aS'Oral_rehydration_therapy'
p166
aS'Malaria'
p167
aS'Anorexia_(symptom)'
p168
aS'Post-exposure_prophylaxis'
p169
aS'Vesicular_stomatitis_virus'
p170
aS'Natural_reservoir'
p171
aS'Rift_Valley_fever'
p172
aS'Q_fever'
p173
aS'Typhoid_fever'
p174
aS'Hemoptysis'
p175
aS'Duiker'
p176
aS'Yaba_monkey_tumor_virus'
p177
aS'Zoonotic_viral_diseases'
p178
aS'Richard_Preston'
p179
aS'List_of_Ebola_patients'
p180
aS'Glycoprotein'
p181
aS'Leishmaniasis'
p182
aS'Viral_hemorrhagic_fever'
p183
aS'Bleeding'
p184
aS'Bunyaviridae'
p185
aS'Ft._Detrick'
p186
aS'Base_pair'
p187
aS'Uganda'
p188
aS'VSV-EBOV'
p189
aS'Weapon_of_mass_destruction'
p190
aS'Five_prime_untranslated_region'
p191
aS'Smallpox'
p192
aS'Leptospirosis'
p193
aS'Medicine'
p194
aS'Marburgvirus'
p195
aS'Sylvisorex_ollula'
p196
aS'Equatorial_Africa'
p197
aS'Cite_pmid/25144302'
p198
aS'Isolation_(health_care)'
p199
aS'Blindness'
p200
aS'ELISA'
p201
aS'Antibodies'
p202
aS'Hepatocytes'
p203
aS'Reston_ebolavirus'
p204
aS'Freeze-drying'
p205
aS'Biological_warfare'
p206
aS'Antibiotic'
p207
aS'Micrograph'
p208
aS'Guanarito_virus'
p209
aS'Alkhurma_virus'
p210
aS'BCX4430'
p211
aS'The_Observer'
p212
aS'Incubation_period'
p213
aS'Positive_pressure_personnel_suit'
p214
aS'International_Statistical_Classification_of_Diseases_and_Related_Health_Problems'
p215
aS'Bolivian_hemorrhagic_fever'
p216
aS'Zaire'
p217
aS'Contact_tracing'
p218
aS'Semliki_Forest_virus'
p219
aS'Tropical_fever'
p220
aS'Middle_East'
p221
aS'Tanapox'
p222
aS'RNA-dependent_RNA_polymerase'
p223
aS'Pain_management'
p224
aS'Sindbis_virus'
p225
aS'RNA_interference'
p226
aS'Virus_topics'
p227
aS'Antimalarial_medication'
p228
aS'Adenoviridae'
p229
aS'2014_Ebola_virus_cases_in_the_United_States'
p230
aS'Hematemesis'
p231
aS'Envenomation'
p232
aS'Hepatitis_B'
p233
aS'Mammal'
p234
aS'Genus'
p235
aS'Rabies_virus'
p236
aS'St._Louis_encephalitis_virus'
p237
aS'Chinese_hamster'
p238
aS'Dysphagia'
p239
aS'Human_papillomavirus'
p240
aS'Chikungunya_virus'
p241
aS'Puumala_virus'
p242
aS'Tumor_necrosis_factor-alpha'
p243
aS'Biopreparat'
p244
aS'Bush_meat'
p245
aS'Cytokines'
p246
aS'Hantaan_River_virus'
p247
aS'Seroconverted'
p248
aS'Herpes_B_virus'
p249
aS'Genome'
p250
aS'Antiviral_drug'
p251
aS'Eastern_equine_encephalomyelitis'
p252
aS'Endothelium'
p253
aS'Mononegavirales'
p254
aS'Gene'
p255
aS'Antipyretic'
p256
aS'Influenza_A'
p257
aS'Transcription_(genetics)'
p258
aS'Rift_Valley_Fever_virus'
p259
aS'California_encephalitis_virus'
p260
aS'Liberia'
p261
aS'Chapare_virus'
p262
aS'The_Hot_Zone'
p263
aS'Nucleocapsid'
p264
aS'United_States'
p265
aS'Hantavirus'
p266
aS'Responses_to_the_Ebola_virus_epidemic_in_West_Africa'
p267
aS'Ebola_virus'
p268
aS'William_Pooley_(Ebola_patient)'
p269
aS'Neutrophils'
p270
aS'Human_T-lymphotropic_virus_2'
p271
aS'Human_T-lymphotropic_virus_1'
p272
aS'Hyperimmune_globulin'
p273
aS'NIH'
p274
aS'Kyasanur_forest_disease'
p275
aS'Lassa_virus'
p276
aS'Sepsis'
p277
aS'Ta\xc3\xaf_Forest_ebolavirus'
p278
aS'Animal_efficacy_rule'
p279
aS'Virus-like_particle'
p280
aS'Protein'
p281
aS'DNA_vaccination'
p282
aS'Excrete'
p283
aS'Virion'
p284
aS'Ebola'
p285
aS'Human_gastrointestinal_tract'
p286
aS'Venezuelan_hemorrhagic_fever'
p287
aS'California_encephalitis'
p288
aS'ZMapp'
p289
aS'Kunjin_virus'
p290
aS'Detergents'
p291
aS'Amazon.com'
p292
aS'Cytopathic_effect'
p293
aS'Banna_virus'
p294
aS'Centers_for_Disease_Control_and_Prevention'
p295
aS'Internal_bleeding'
p296
aS'Thrombotic_thrombocytopenic_purpura'
p297
aS'Cell_culture'
p298
aS'Powassan_virus'
p299
aS'Guardian_Media_Group'
p300
aS'Matthew_Lukwiya'
p301
aS'Ruth_Atkins'
p302
aS'Diseases_Database'
p303
aS'Mus_setulosus'
p304
aS'Lipid_bilayer_fusion'
p305
aS'Central_African_Republic'
p306
aS'Visceral'
p307
aS'RNA'
p308
aS'International_Standard_Serial_Number'
p309
aS'Ebola_virus_epidemic_in_West_Africa'
p310
aS'Hand_washing'
p311
aS'Brazilian_hemorrhagic_fever'
p312
aS'Budding'
p313
aS'Guinea'
p314
aS'Diarrhea'
p315
aS'USAMRIID'
p316
aS'Paleovirus'
p317
aS'Platelet'
p318
aS'Histoplasmosis'
p319
aS'Desquamation'
p320
aS'Myonycteris_torquata'
p321
aS'Cell_membrane'
p322
aS'Ebolavirus'
p323
aS'United_States_Army_Medical_Research_Institute_of_Infectious_Diseases'
p324
aS'Yellow_fever_virus'
p325
aS'Antibiotics'
p326
aS'Kemerovo_tickborne_viral_fever'
p327
aS'Kidney_failure'
p328
aS'Cite_pmid/25265598'
p329
aS'Togaviridae'
p330
aS'World_Health_Organization'
p331
aS'Nipah_virus'
p332
aS'Purpura'
p333
aS'OCLC'
p334
aS'Electron_microscopy'
p335
aS'Symptoms'
p336
aS'List_of_Ebola_outbreaks'
p337
aS'Kawasaki_disease'
p338
aS'Rhabdoviridae'
p339
aS'Kyasanur_forest_disease_virus'
p340
aS'Polyadenylation'
p341
aS'RNA_antivirals'
p342
aS'Lymph_node'
p343
aS'MRNA'
p344
aS'La_Crosse_virus'
p345
aS'Dengue_virus'
p346
aS'Junin_virus'
p347
aS'Fever'
p348
aS'Ross_River_fever'
p349
aS'Cite_pmid/24501399'
p350
aS'Bioterrorism'
p351
aS'Spleen'
p352
aS'Sub-Saharan_Africa'
p353
aS'Eastern_equine_encephalitis_virus'
p354
aS'Shigellosis'
p355
aS'Sin_Nombre_virus'
p356
aS'GlaxoSmithKline'
p357
aS'Blood'
p358
aS'Differential_diagnosis'
p359
aS'Filoviruses'
p360
aS'Small_molecule'
p361
aS'Epomops_franqueti'
p362
aS'Iridocyclitis'
p363
aS'Clinical_trial'
p364
aS'Omsk_hemorrhagic_fever'
p365
aS'Chikungunya'
p366
aS'Filovirus'
p367
aS'Cytosol'
p368
aS'Simian_hemorrhagic_fever_virus'
p369
aS'International_Standard_Book_Number'
p370
aS"O\\'Nyong-nyong_fever"
p371
aS'Lujo_virus'
p372
aS'Scytovirin'
p373
aS'Intensive_care'
p374
aS'Hendra_virus'
p375
aS'Petechia'
p376
aS'Monkeypox'
p377
aS'Sterilization_(microbiology)'
p378
aS'Headaches'
p379
aS'Nucleic_acid_sequence'
p380
aS'Intravenous_fluids'
p381
aS'Peter_Piot'
p382
aS'Channel_blocker'
p383
aS'Zaire_ebolavirus'
p384
aS'Candidiasis'
p385
aS'CBS_News'
p386
aS'Blood_in_stool'
p387
aS'Index_case'
p388
aS'Medical_Subject_Headings'
p389
aS'Lamivudine'
p390
aS'Griffithsin'
p391
aS'Saint_Louis_encephalitis'
p392
aS'Rabies'
p393
aS'Australian_bat_lyssavirus'
p394
aS'Endogenous_viral_element'
p395
aS'Argentine_hemorrhagic_fever'
p396
aS'Expanded_access'
p397
aS'Snake'
p398
aS'Intravenous_immunoglobulin'
p399
aS'Ebola_(disambiguation)'
p400
aS'Viral_proteins'
p401
aS'Monoclonal_antibody'
p402
aS'Orchitis'
p403
aS'Japanese_encephalitis'
p404
aS'Tick-borne_encephalitis_virus'
p405
aS'International_Committee_on_Taxonomy_of_Viruses'
p406
aS'Morpholino'
p407
aS'Lancet'
p408
aS'Vaccines'
p409
aS'Google_Books'
p410
aS'Crab-eating_macaque'
p411
aS'Rodent'
p412
aS'Dengue_fever'
p413
aS'Crisis_in_the_Hot_Zone'
p414
aS'National_Institutes_of_Health'
p415
aS'Bibcode'
p416
aS'Bangladesh'
p417
aS'Mosquito-borne_disease'
p418
aS'Reston,_Virginia'
p419
aS'Packed_red_blood_cells'
p420
aS'Gulu'
p421
aS'2014_Democratic_Republic_of_the_Congo_Ebola_virus_outbreak'
p422
aS'Trimer_(biochemistry)'
p423
aS'Polymerase_chain_reaction'
p424
aS'Varicella_zoster'
p425
aS'Filoviridae'
p426
aS'Hiccup'
p427
aS'Circulatory_system'
p428
aS'2014_West_African_Ebola_outbreak'
p429
aS'Drug_Discov._Dev.'
p430
aS'Monrovia'
p431
aS'Bundibugyo_virus'
p432
aS'Nosocomial'
p433
aS'FGI-103'
p434
aS'FGI-106'
p435
aS'Borreliosis'
p436
aS'FGI-104'
p437
aS'Burial'
p438
aS'Influenza'
p439
aS'Ross_River_virus'
p440
aS'Outbreak_(film)'
p441
aS'Ebola_River'
p442
aS'Mucous_membrane'
p443
aS'Viruses'
p444
aS'Bushmeat'
p445
aS'Financial_Times'
p446
aS'Kidney'
p447
aS'Kent_Brantly'
p448
aS'Hemolytic_uremic_syndrome'
p449
aS'Dallas'
p450
aS'Disinfection'
p451
aS'Warfarin'
p452
aS'Ebola_river'
p453
aS'Chandipura_virus'
p454
aS'Megabat'
p455
aS'Duvenhage_virus'
p456
aS'Rickettsia'
p457
aS'Scrub_typhus'
p458
aS'Measles'
p459
aS'Toremifene'
p460
aS'Coagulopathy'
p461
aS'Washing_hands'
p462
aS'Venezuelan_equine_encephalomyelitis'
p463
aS'Republic_of_Congo'
p464
aS'Tick-borne_encephalitis'
p465
aS'Amur_virus'
p466
aS'Tick-borne_disease'
p467
aS'Fresh_frozen_plasma'
p468
aS'042\xe2\x80\x93079'
p469
aS'Hereditary_hemorrhagic_telangiectasia'
p470
aS'Multiple_organ_dysfunction_syndrome'
p471
aS'Antisense_therapy'
p472
aS'Acute_promyelocytic_leukemia'
p473
aS'South_Sudan'
p474
aS'Asymptomatic'
p475
aS'Lagos_bat_virus'
p476
aS'Oliver_Stone'
p477
aS'2014_Ebola_virus_epidemic_in_Liberia'
p478
aS'Semen'
p479
aS'Praomys'
p480
aS'Murray_Valley_encephalitis_virus'
p481
aS'Trypanosomiasis'
p482
aS'Best-selling'
p483
aS'Japanese_encephalitis_virus'
p484
aS'Reston_virus'
p485
aS'Retroviridae'
p486
aS'Integrin'
p487
aS'Cite_pmid/24145548'
p488
aS'Alopecia'
p489
aS'Mabalo_Lokela'
p490
aS'Rash'
p491
aS'Flaviviridae'
p492
aS'Hypsignathus_monstrosus'
p493
aS'Omsk_hemorrhagic_fever_virus'
p494
aS'Fort_Detrick,_Maryland'
p495
aS'Arbovirus_encephalitis'
p496
aS'ICD-10'
p497
aS"Mayinga_N\\'Seka"
p498
aS'Quarantine'
p499
aS'Covalent_bond'
p500
aS'Gorilla'
p501
aS'Nose'
p502
aS'CS1_errors'
p503
aS'Ngoy_Mushola'
p504
aS'Bodily_fluid'
p505
aS'Isiro'
p506
aS'Mononuclear_phagocyte_system'
p507
aS'Colorado_tick_fever_virus'
p508
aS'PubMed_Central'
p509
aS'Bundibugyo_District'
p510
aS'Nature_Reviews._Immunology'
p511
aS'Palliative_care'
p512
aS'Red_eyes_(medicine)'
p513
aS'RNA_polymerase'
p514
atp515
Rp516
.