c__builtin__
set
p0
((lp1
S'Arenavirus'
p2
aS'Ruth_Atkins'
p3
aS'Tanapox'
p4
aS'Favipiravir'
p5
aS'Ebola'
p6
aS'Pathogen'
p7
aS'Rabies'
p8
aS'Ebolavirus'
p9
aS'ZMapp'
p10
aS'Mabalo_Lokela'
p11
aS'Filoviridae'
p12
aS'Flaviviridae'
p13
aS'Togaviridae'
p14
aS'Rhabdoviridae'
p15
aS'Henipavirus'
p16
aS"Mayinga_N\\'Seka"
p17
aS'Hantavirus'
p18
aS'TKM-Ebola'
p19
aS'VSV-EBOV'
p20
aS'Brincidofovir'
p21
aS'William_Pooley_(Ebola_patient)'
p22
aS'FGI-104'
p23
aS'Chikungunya'
p24
aS'BCX4430'
p25
aS'Yambuku'
p26
aS'Bunyaviridae'
p27
aS'Ngoy_Mushola'
p28
aS'Paramyxoviridae'
p29
aS'Reoviridae'
p30
aS'Bushmeat'
p31
aS'Monkeypox'
p32
atp33
Rp34
.