c__builtin__
set
p0
((lp1
I893955
aI333398
aI1384454
aI1719309
aI242702
aI43628051
aI1582612
aI366112
aI1581104
aI17685556
aI36378176
aI8271933
aI43970624
aI640717
aI2052681
aI208458
aI44016208
aI44031059
aI44026454
aI43423835
aI43987559
aI26378
aI42345073
aI1929332
aI42176118
aI4528248
aI33041529
aI36586109
aI1432191
aI4068996
aI8563845
aI43622022
aI2325129
aI2939018
aI11986060
aI43849871
aI2347152
aI39914653
aI21054623
aI402080
aI33292451
aI33041583
aI416945
aI71560
aI33134774
aI1929401
aI2078908
aI5074109
aI4671685
aI4671688
aI43786912
aI956106
aI1780941
aI23937743
aI1505491
aI387188
aI733927
aI1929452
aI24007917
aI39669
aI7514875
aI2052864
aI1999106
aI816001
aI39888138
aI417038
aI9771286
aI43478312
aI23911303
aI33039752
aI26915636
aI31816507
aI1582914
aI2185035
aI22814545
aI21054804
aI8265047
aI44000088
aI25227114
aI5205992
aI43779954
aI58743
aI198520
aI8398201
aI40658813
aI769409
aI40872327
aI18696584
aI1571730
aI2297235
aI44013464
aI57757
aI37796
aI2109872
aI35038133
aI43978682
aI536223
aI76222
aI33041857
aI43958216
aI210518
aI7539661
aI34254
aI332240
aI9788885
aI6944726
aI38866340
aI43955674
aI33048027
aI1981916
aI4368350
aI17887
aI208464
aI4212710
aI453608
aI8292334
aI33048050
aI2105335
aI9054715
aI33048060
aI1449983
atp2
Rp3
.