(lp0
S'La_Crosse_encephalitis'
p1
aS'BCX4430'
p2
aS'Bunyaviridae'
p3
aS'Viral_hemorrhagic_fever'
p4
aS'Monkeypox'
p5
aS'TKM-Ebola'
p6
aS'Arenavirus'
p7
aS'Chikungunya'
p8
aS'Ross_River_virus'
p9
aS'Powassan_encephalitis'
p10
aS'Amur_virus'
p11
aS'Matthew_Lukwiya'
p12
aS'Patrick_Sawyer'
p13
aS'Zoonotic_viral_diseases'
p14
aS'Semliki_Forest_virus'
p15
aS'Filoviridae'
p16
aS'Responses_to_the_Ebola_virus_epidemic_in_West_Africa'
p17
aS'Mabalo_Lokela'
p18
aS'Henipavirus'
p19
aS'Hantavirus_hemorrhagic_fever_with_renal_syndrome'
p20
aS'Sheik_Umar_Khan'
p21
aS'2014_Ebola_virus_epidemic_in_Liberia'
p22
aS'Ebola_virus_epidemic_in_West_Africa'
p23
aS'Colorado_tick_fever'
p24
aS'Brincidofovir'
p25
aS'Ebola_Syndrome'
p26
aS'Ta\xc3\xaf_Forest_ebolavirus'
p27
aS'List_of_human_disease_case_fatality_rates'
p28
aS'Japanese_encephalitis'
p29
aS'Crisis_in_the_Hot_Zone'
p30
aS'Powassan_virus'
p31
aS'Ameyo_Adadevoh'
p32
aS'Reston_virus'
p33
aS'Lagos_bat_virus'
p34
aS'California_encephalitis_virus'
p35
aS'Zika_fever'
p36
aS'Ruth_Atkins'
p37
aS'Crimean\xe2\x80\x93Congo_hemorrhagic_fever'
p38
aS'Dobrava-Belgrade_virus'
p39
aS'Mosquito-borne_disease'
p40
aS'William_Pooley_(Ebola_patient)'
p41
aS'Kemerovo_tickborne_viral_fever'
p42
aS'Sudan_ebolavirus'
p43
aS'Hantavirus'
p44
aS'Marburg_virus'
p45
aS'Tick-borne_encephalitis_virus'
p46
aS'Ross_River_fever'
p47
aS'Venezuelan_equine_encephalitis_virus'
p48
aS'Alkhurma_virus'
p49
aS'Omsk_hemorrhagic_fever'
p50
aS'Ebolavirus'
p51
aS'Richard_Preston'
p52
aS'The_Hot_Zone'
p53
aS'Lassa_virus'
p54
aS'FGI-104'
p55
aS'Outbreak_(film)'
p56
aS'Kyasanur_forest_disease'
p57
aS'Brazilian_hemorrhagic_fever'
p58
aS'Dengue_fever'
p59
aS'Argentine_hemorrhagic_fever'
p60
aS"O\\'nyong\\'nyong_virus"
p61
aS'Venezuelan_hemorrhagic_fever'
p62
aS'Sin_Nombre_virus'
p63
aS'Rift_Valley_fever'
p64
aS'Rhabdoviridae'
p65
aS'Sindbis_virus'
p66
aS'Tick-borne_encephalitis'
p67
aS'ZMapp'
p68
aS'Favipiravir'
p69
aS'Bundibugyo_ebolavirus'
p70
aS'Yaba_monkey_tumor_virus'
p71
aS'Langat_virus'
p72
aS'Togaviridae'
p73
aS'Australian_bat_lyssavirus'
p74
aS'Lujo_virus'
p75
aS'Arbovirus_encephalitis'
p76
aS'Ebola'
p77
aS'2014_Ebola_virus_cases_in_the_United_States'
p78
aS'List_of_Ebola_outbreaks'
p79
aS'Reoviridae'
p80
aS'VSV-EBOV'
p81
aS'Marburg_virus_disease'
p82
aS'Paramyxoviridae'
p83
aS'Tanapox'
p84
aS'Hantaan_River_virus'
p85
aS'Peter_Piot'
p86
aS'Kunjin_virus'
p87
aS'Incubation_period'
p88
aS'Saint_Louis_encephalitis'
p89
aS'Murray_Valley_encephalitis_virus'
p90
aS'List_of_Ebola_patients'
p91
aS'Ebola_River'
p92
aS'West_Nile_virus'
p93
aS"Mayinga_N\\'Seka"
p94
aS'Pathogen'
p95
aS'2014_Ebola_virus_epidemic_in_Guinea'
p96
aS'Bolivian_hemorrhagic_fever'
p97
aS'Flaviviridae'
p98
aS'Human_T-lymphotropic_virus_1'
p99
aS'2014_Democratic_Republic_of_the_Congo_Ebola_virus_outbreak'
p100
aS'Executive_Orders'
p101
aS'Western_equine_encephalitis_virus'
p102
aS'Yellow_fever'
p103
aS'Bushmeat'
p104
aS'Junin_virus'
p105
aS'Andes_virus'
p106
aS'Banna_virus'
p107
aS'2014_Ebola_virus_epidemic_in_Sierra_Leone'
p108
aS'Sudan_virus'
p109
aS'Chandipura_virus'
p110
aS'Yambuku'
p111
aS'Lassa_fever'
p112
aS'Ngoy_Mushola'
p113
aS'Duvenhage_virus'
p114
aS'Simian_foamy_virus'
p115
aS'Herpes_B_virus'
p116
aS'Bundibugyo_virus'
p117
aS'Eastern_equine_encephalitis_virus'
p118
aS'Puumala_virus'
p119
aS'Ta\xc3\xaf_Forest_virus'
p120
aS'Natural_reservoir'
p121
a.