c__builtin__
set
p0
((lp1
I192517
aI1384454
aI8265047
aI644499
aI251927
aI2727969
aI1558567
aI17784874
aI221228
aI49197
aI10610734
aI1581104
aI24461363
aI11700276
aI241717
aI7778358
aI542777
aI3549243
aI8271933
aI43970624
aI1660995
aI19337289
aI956493
aI1719309
aI145489
aI856149
aI69720
aI532570
aI43423835
aI249951
aI12388
aI6246
aI1576959
aI2859118
aI387188
aI12175478
aI4528248
aI319610
aI569480
aI692361
aI2939018
aI21180555
aI43849871
aI2347152
aI250001
aI14092434
aI21180565
aI1038491
aI21180572
aI33292451
aI18604
aI39678323
aI33134774
aI1929401
aI2828474
aI2078908
aI151745
aI4292
aI4671685
aI4671688
aI226679
aI7399631
aI1505491
aI28997850
aI3051751
aI209959
aI1929452
aI21180655
aI15497601
aI69875
aI92409
aI5030138
aI10445054
aI186625
aI12546
aI769409
aI4361
aI20321147
aI9771286
aI2775325
aI4393
aI3701048
aI43061
aI90451
aI26806620
aI321886
aI86367
aI53136
aI28617060
aI733927
aI18983276
aI4053357
aI728467
aI137589
aI42842496
aI44054592
aI12538243
aI40872327
aI18696584
aI57741
aI342417
aI477588
aI18838
aI57757
aI21180832
aI82342
aI4399529
aI28674474
aI2109872
aI1724851
aI27067
aI76222
aI414144
aI616901
aI63942
aI22984
aI9859533
aI332240
aI428502
aI2048472
aI31324642
aI285157
aI2598993
aI23634
aI1389038
aI1085940
aI1137144
aI381434
aI9054715
aI963069
aI1157632
aI45570
aI6064646
aI18957
aI238097
aI487961
aI18446876
aI285213
aI649760
aI238115
aI15196708
aI539175
aI44055082
aI238124
aI201268
aI272958
aI31959616
aI14919
aI2052681
aI1999106
aI53838
aI44057167
aI44016208
aI178769
aI44026454
aI18747997
aI474213
aI2697827
aI506469
aI43987559
aI1907304
aI37055085
aI191086
aI42345073
aI191090
aI322166
aI36586109
aI463486
aI1432191
aI17025
aI13204100
aI12937
aI4746
aI14713488
aI537710
aI6811
aI39053980
aI402080
aI2302625
aI602790
aI27308
aI21445405
aI22702771
aI34245303
aI1929332
aI29370
aI53951
aI158400
aI246471
aI44057288
aI44057290
aI23937743
aI44010196
aI18766553
aI21660387
aI2800359
aI43903722
aI43983595
aI12174061
aI39669
aI19016439
aI7514875
aI188518
aI948990
aI2052864
aI684811
aI2796300
aI1110799
aI27421
aI4215591
aI8239917
aI33583
aI26915636
aI2869
aI31816507
aI391997
aI209728
aI2296648
aI16986953
aI14353229
aI310094
aI44000088
aI607070
aI25121632
aI711521
aI31596
aI37542765
aI1786737
aI34327414
aI14545784
aI19323
aI44057468
aI7038
aI5933952
aI816001
aI252806
aI21383
aI1985416
aI1981932
aI146315
aI1106830
aI1571730
aI27546
aI37796
aI584617
aI449452
aI43949
aI449454
aI35038133
aI95162
aI619451
aI14717894
aI82887
aI21631946
aI7539661
aI883664
aI213976
aI76762
aI2464737
aI158690
aI455651
aI80869
aI625638
aI453608
aI478185
aI168948
aI893955
aI1157634
aI242702
aI46253
aI1659923
aI44052
aI22617127
aI1002536
aI26840107
aI164912
aI2010162
aI2407475
aI17685556
aI5581877
aI2919491
aI31816
aI422994
aI44031059
aI31661142
aI43756631
aI46174
aI23647
aI15459
aI4893797
aI433257
aI12536942
aI29810
aI33041529
aI25227114
aI359551
aI6739073
aI2395267
aI8563845
aI11986060
aI39914653
aI25758
aI21054623
aI56480
aI21410982
aI1819816
aI883885
aI33041583
aI416945
aI5074109
aI392393
aI1780941
aI1271003
aI212193
aI160995
aI24007917
aI1391856
aI580852
aI12127483
aI240512
aI15840519
aI4898056
aI39888138
aI417038
aI15840528
aI1633554
aI417043
aI81182
aI43478312
aI23911303
aI21054764
aI566578
aI894262
aI7914818
aI32068
aI1578313
aI380239
aI3190097
aI1578323
aI21054804
aI417111
aI177497
aI43199841
aI5478
aI1699176
aI3433
aI11632
aI136566
aI58743
aI8398201
aI3454
aI17791
aI890240
aI29476225
aI33039752
aI527756
aI32145
aI2297235
aI2004375
aI38866340
aI7591
aI234930
aI908728
aI4574651
aI927165
aI3829182
aI33041857
aI8785347
aI43464132
aI7943626
aI34254
aI9788885
aI472537
aI43955674
aI33048027
aI1981916
aI17887
aI1078762
aI175596
aI44062191
aI33048050
aI33048060
aI790018
aI333398
aI262401
aI3335295
aI540173
aI1664529
aI43628051
aI1582612
aI196121
aI58911
aI366112
aI927267
aI155176
aI38133301
aI30265
aI1076794
aI13755965
aI2055742
aI36378176
aI26433093
aI42567
aI208458
aI208464
aI759377
aI3530325
aI210518
aI38493
aI35149406
aI416934
aI33041682
aI34421
aI42176118
aI167544
aI14270074
aI1150589
aI29402755
aI4068996
aI43622022
aI32653
aI915081
aI525963
aI10839695
aI10843800
aI536223
aI315043
aI15302
aI956089
aI12506817
aI956106
aI640717
aI40603347
aI32476
aI1535717
aI6781
aI1224439
aI12027
aI106239
aI1214213
aI20231
aI26378
aI1805
aI331535
aI44054294
aI12067
aI3640966
aI6008615
aI42795
aI743212
aI2325129
aI4732732
aI10580618
aI345919
aI1582914
aI962372
aI69447
aI2185035
aI1613644
aI149326
aI2932559
aI22814545
aI36626261
aI12535638
aI3198809
aI198491
aI34080611
aI3960678
aI43456362
aI657262
aI43779954
aI198520
aI40658813
aI25237
aI15845253
aI71560
aI33197378
aI12176
aI44013464
aI3997
aI24735649
aI498331
aI1548205
aI964526
aI44052408
aI43978682
aI444349
aI7690175
aI37312448
aI43786912
aI20423
aI43958216
aI3004362
aI2105335
aI643023
aI6944726
aI632791
aI149467
aI196920
aI275509
aI4368350
aI1112059
aI4212710
aI4044113
aI5205992
aI8292334
aI57330
aI21510483
aI770039
aI43458555
aI-1
aI1449983
atp2
Rp3
.