c__builtin__
set
p0
((lp1
I43431937
aI41906178
aI743429
aI23609350
aI42372780
aI35575127
aI43776685
aI43444245
aI36640793
aI43986971
aI42357602
aI33998882
aI41573382
aI42754092
aI30553962
aI40542254
aI43621725
aI36757552
aI24561713
aI33143475
aI43171892
aI43477047
aI34046012
aI8271933
aI43970624
aI37476420
aI14831686
aI34463815
aI41918537
aI41025610
aI19757131
aI28483660
aI27664462
aI18079829
aI15478870
aI43423835
aI34318432
aI41222249
aI27273328
aI1929332
aI26293988
aI13166712
aI41820287
aI43810950
aI39493767
aI42440840
aI39544969
aI2939018
aI1749134
aI43849871
aI2347152
aI43671700
aI37519511
aI15184025
aI43440282
aI43899039
aI43970721
aI39837858
aI33292451
aI41695396
aI43901692
aI38406310
aI43432104
aI7678697
aI11301038
aI37132465
aI39977142
aI17096052
aI2078908
aI956106
aI23040191
aI42293440
aI39917762
aI4671685
aI43727046
aI17891527
aI4671688
aI9623927
aI43423954
aI1505491
aI33431764
aI32438486
aI20936919
aI39686360
aI42977502
aI3897568
aI43978978
aI9873635
aI21270756
aI36620524
aI43401938
aI4443176
aI10133754
aI25059584
aI1999106
aI23525635
aI41324806
aI769409
aI35227912
aI40792329
aI30765
aI15673616
aI24010798
aI9771286
aI39221527
aI40957316
aI7588123
aI1581104
aI39919909
aI34265137
aI40872327
aI33534685
aI18696584
aI25848115
aI39342389
aI43432248
aI39119161
aI34148673
aI40943939
aI36647236
aI18080481
aI41857352
aI32463178
aI33292619
aI34675020
aI43450765
aI43796196
aI26384738
aI3529060
aI43191697
aI43440488
aI41408877
aI12800366
aI43575664
aI19657448
aI35633522
aI2297235
aI18268905
aI33060708
aI16790591
aI37245312
aI34984327
aI33970370
aI43442569
aI37908876
aI43366797
aI38707598
aI37293066
aI43567512
aI10797466
aI57757
aI43424162
aI39381062
aI43440553
aI41785770
aI43100587
aI33669549
aI2109872
aI31300017
aI2398643
aI33632693
aI43528630
aI37151159
aI15165880
aI40659386
aI34001339
aI5179836
aI76222
aI19167679
aI33096132
aI33096133
aI33290694
aI34159047
aI57803
aI38934990
aI332240
aI36643284
aI11160021
aI40659414
aI37071321
aI17355228
aI43432414
aI43424224
aI40976865
aI7514875
aI43514344
aI42383849
aI12325356
aI7623153
aI15401459
aI38767094
aI9054715
aI145834
aI1858051
aI5231111
aI19739146
aI28125707
aI43401762
aI35713557
aI42179096
aI12438041
aI43844122
aI43401759
aI41226785
aI34869794
aI21852251
aI38679079
aI37635847
aI37184044
aI35054125
aI41480750
aI40391215
aI36182576
aI21093109
aI32496181
aI44055097
aI35242555
aI43045436
aI16945725
aI1731135
aI35713600
aI40538690
aI43823683
aI22102597
aI40659526
aI2052681
aI43467340
aI44016208
aI18330193
aI28738130
aI608853
aI44026454
aI15589587
aI43467353
aI461410
aI43987559
aI40977001
aI608874
aI43467371
aI4168303
aI692849
aI43524724
aI33782206
aI42513014
aI21369463
aI41601656
aI41040507
aI43424380
aI36586109
aI1432191
aI31027843
aI33938052
aI40659591
aI2325129
aI11219596
aI39918221
aI42345103
aI31746841
aI34523800
aI36426180
aI39656091
aI58012
aI43786912
aI9009830
aI41069227
aI40977069
aI27204271
aI41863177
aI2114227
aI36625077
aI387188
aI43423181
aI31277755
aI39930558
aI34771651
aI29197089
aI43459274
aI26964683
aI23937743
aI4528248
aI17799890
aI41681699
aI43401945
aI3750618
aI13656797
aI29825488
aI733927
aI41411304
aI11170537
aI39669
aI42386169
aI2196219
aI22704892
aI43440895
aI2052864
aI40362753
aI41517826
aI43971331
aI22825734
aI35873544
aI39705353
aI43440710
aI41765648
aI564696
aI43510546
aI22693337
aI36551448
aI35300484
aI43440923
aI41679644
aI40971040
aI43600688
aI58743
aI43629348
aI38646565
aI30880550
aI3528156
aI28541063
aI43574061
aI32725808
aI236338
aI26915636
aI40977205
aI43440950
aI39088954
aI31816507
aI23436100
aI43735882
aI24185676
aI44043085
aI21259405
aI43443024
aI43434833
aI43735890
aI39703384
aI43459417
aI19010394
aI32210063
aI40026974
aI36397919
aI1162080
aI43440994
aI17982308
aI37634917
aI35857255
aI39920491
aI43938670
aI39396208
aI26123121
aI41866099
aI20370921
aI41386873
aI5741435
aI42505086
aI816001
aI40121218
aI36597227
aI43418502
aI23911303
aI38392712
aI43749868
aI27306891
aI42476428
aI8785389
aI5157776
aI1571730
aI39977878
aI33345689
aI40485789
aI15966021
aI37796
aI34413477
aI41571238
aI21476263
aI43938729
aI1786794
aI25375659
aI39914653
aI43084720
aI1743794
aI35038133
aI40870838
aI40727480
aI21054623
aI43813825
aI30553026
aI23436232
aI24525771
aI39928780
aI7539661
aI37853347
aI34524117
aI42374104
aI40666074
aI2186205
aI30383073
aI18682363
aI14973924
aI41608167
aI453608
aI41190383
aI13356022
aI38601897
aI35273721
aI42683387
aI24886274
aI893955
aI43615238
aI24146954
aI1719309
aI21707790
aI43463837
aI12778328
aI39930900
aI43627542
aI41808921
aI35634204
aI10333213
aI29391902
aI26022944
aI40399908
aI43140135
aI16839720
aI43473969
aI17685556
aI44000094
aI30807094
aI43402300
aI40659466
aI43213887
aI19777587
aI38593603
aI33134774
aI43613255
aI43445322
aI43779149
aI26346577
aI44031059
aI1929401
aI40957016
aI9028697
aI43732060
aI41141344
aI34870372
aI7607204
aI43521126
aI16381036
aI23436398
aI40817776
aI12551282
aI27726965
aI33041529
aI43185277
aI371840
aI38392964
aI8563845
aI39697542
aI33428615
aI43611273
aI11986060
aI12187842
aI40817806
aI27717485
aI43496985
aI38866340
aI43619485
aI37012639
aI24339988
aI3279728
aI41696420
aI33959
aI28648617
aI48301
aI48302
aI33041583
aI39527600
aI26250417
aI18705267
aI38567093
aI41952441
aI5074109
aI26617022
aI27913410
aI43445444
aI20978885
aI41024711
aI1780941
aI36818127
aI24579285
aI945375
aI43404513
aI43455715
aI35169508
aI14484710
aI7997308
aI12803307
aI37033196
aI24007917
aI24831215
aI161011
aI36732148
aI38364406
aI16569591
aI33064184
aI43650298
aI43263189
aI31745280
aI18693382
aI39888138
aI43451161
aI38233357
aI417038
aI2366736
aI40953106
aI33150229
aI24960281
aI33927727
aI24569116
aI27008285
aI36230430
aI41022751
aI36153904
aI34278690
aI31851398
aI43478312
aI23436587
aI37895469
aI29107439
aI43162928
aI23436598
aI36570424
aI34360640
aI4402497
aI26473795
aI4402501
aI41223495
aI23446858
aI8176976
aI21054804
aI8265047
aI26758372
aI39918971
aI32276026
aI31006046
aI43621727
aI44039520
aI38241639
aI19809643
aI42974572
aI37903727
aI43939185
aI41698674
aI43939187
aI43939188
aI43939189
aI43939190
aI43939191
aI43939192
aI8398201
aI43939194
aI33949051
aI26090878
aI18363775
aI44049793
aI16698756
aI33039752
aI1929452
aI29871499
aI34475407
aI1475985
aI41185859
aI28011759
aI43082309
aI40779172
aI23436709
aI16244137
aI22037933
aI14427568
aI1659894
aI8388563
aI7390793
aI40934845
aI33041857
aI1384454
aI38493637
aI35530187
aI38462925
aI34254
aI33308114
aI40820180
aI9788885
aI7232984
aI43671001
aI43955674
aI33048027
aI1981916
aI17887
aI39626208
aI37232097
aI35837411
aI27928138
aI18220518
aI43569745
aI25191912
aI27952617
aI18439658
aI41663399
aI14427629
aI44002799
aI31251857
aI7880177
aI33048050
aI17559031
aI43677176
aI33048060
aI34734881
aI35513859
aI11318789
aI35278343
aI27313673
aI36615690
aI43628051
aI1582612
aI43062805
aI43628057
aI28849071
aI33457692
aI366112
aI41219620
aI40666661
aI30778922
aI36275756
aI44039358
aI37890312
aI35649074
aI43439670
aI37541432
aI24229434
aI18438651
aI36378176
aI13643331
aI42243656
aI22642249
aI208458
aI208459
aI36776388
aI43839054
aI208464
aI26195
aI333398
aI23436888
aI41924187
aI42098268
aI23467614
aI37162593
aI26080866
aI31206331
aI31805031
aI39956072
aI16963178
aI43467367
aI36451951
aI43402305
aI35532392
aI42155634
aI8050291
aI42176118
aI93816
aI39147797
aI4068996
aI42628741
aI43622022
aI34439
aI40953480
aI19751874
aI42479249
aI43826835
aI43460246
aI18366103
aI20977305
aI20868763
aI536223
aI43253408
aI32109082
aI41604771
aI16946852
aI38786726
aI42345073
aI43439690
aI43744940
aI24178290
aI37748399
aI31172273
aI41815731
aI36241078
aI40930051
aI36835003
aI35583682
aI18269895
aI2435657
aI43394762
aI43423435
aI640717
aI39573199
aI36835031
aI36835034
aI39532251
aI39915229
aI40935137
aI39679716
aI36835052
aI43222765
aI31704816
aI43439857
aI16731091
aI25777908
aI18919163
aI23092989
aI43431678
aI41236227
aI19191558
aI41742087
aI35759881
aI26378
aI43437841
aI43777017
aI5027605
aI44003094
aI40541983
aI38494171
aI25265956
aI44007209
aI41867051
aI22685485
aI22798127
aI30859059
aI4368350
aI40976184
aI36654909
aI976703
aI17891136
aI1582914
aI43450181
aI242702
aI2185035
aI4079439
aI22814545
aI5077987
aI9799508
aI34197337
aI19752796
aI6905700
aI4212710
aI39903079
aI39663465
aI25227114
aI7198571
aI6944620
aI41918317
aI44000088
aI32182129
aI43779954
aI18671478
aI26132343
aI198520
aI32790396
aI40658813
aI36941699
aI44002625
aI71560
aI4773771
aI25714574
aI27232579
aI34709397
aI39102359
aI44013464
aI37397829
aI36966043
aI43003814
aI416945
aI41947058
aI42102707
aI43978682
aI8558524
aI40982462
aI35823551
aI40251329
aI35748215
aI1226692
aI39263222
aI36114374
aI43958216
aI36626377
aI210518
aI43742882
aI15024081
aI36800467
aI3565525
aI6944726
aI37507031
aI402080
aI21360604
aI31219678
aI43659231
aI32178145
aI36625062
aI2875366
aI5205992
aI38920170
aI43409387
aI8292334
aI43675634
aI2105335
aI43884543
aI1449983
atp2
Rp3
.