(lp0
S'Arenavirus'
p1
aS'Ruth_Atkins'
p2
aS'Tanapox'
p3
aS'Reoviridae'
p4
aS'Ebola'
p5
aS'Pathogen'
p6
aS'Rabies'
p7
aS'Ebolavirus'
p8
aS'ZMapp'
p9
aS'Filoviridae'
p10
aS'Flaviviridae'
p11
aS'Togaviridae'
p12
aS'Rhabdoviridae'
p13
aS'Henipavirus'
p14
aS"Mayinga_N\\'Seka"
p15
aS'Hantavirus'
p16
aS'TKM-Ebola'
p17
aS'VSV-EBOV'
p18
aS'Brincidofovir'
p19
aS'William_Pooley_(Ebola_patient)'
p20
aS'FGI-104'
p21
aS'Chikungunya'
p22
aS'BCX4430'
p23
aS'Yambuku'
p24
aS'Bunyaviridae'
p25
aS'Ngoy_Mushola'
p26
aS'Paramyxoviridae'
p27
aS'Favipiravir'
p28
aS'Monkeypox'
p29
aS'Bushmeat'
p30
aS'Mabalo_Lokela'
p31
aS'MASkargo'
p32
aS'MASwings'
p33
aS'Tomnod'
p34
aS'Malaysia'
p35
aS'Inmarsat'
p36
aS'Bluefin-21'
p37
aS'2010s'
p38
aS'Bandy'
p39
aS'MegaFon'
p40
aS'Salzburg'
p41
aS'Sochi'
p42
aS'Sportfive'
p43
aS'Circassians'
p44
aS'Zoich'
p45
aS'NBC'
p46
aS'Slopestyle'
p47
aS'Russia'
p48
aS'Dominica'
p49
aS'Malaysia_Airlines_Flight_370'
p50
aS'Ebola_virus_disease'
p51
aS'2014_Winter_Olympics'
p52
a.