(lp0
S'Ebola_virus_disease'
p1
aS'Pride_House'
p2
aS'2014_Ebola_virus_epidemic_in_Sierra_Leone'
p3
aS'La_Crosse_encephalitis'
p4
aS'LGBT_rights_in_Russia'
p5
aS'Olympics'
p6
aS'Olympic_Charter'
p7
aS'2006_Winter_Olympics'
p8
aS'List_of_Olympic_torch_relays'
p9
aS'Filoviridae'
p10
aS'2014_Winter_Olympics'
p11
aS'HMS_Echo_(H87)'
p12
aS'Langat_virus'
p13
aS'Lists_of_Olympic_medalists'
p14
aS'1976_Winter_Olympics'
p15
aS'Adler_railway_station'
p16
aS'Iran_at_the_2014_Winter_Olympics'
p17
aS'Hantavirus_hemorrhagic_fever_with_renal_syndrome'
p18
aS'Pulau_Meranti'
p19
aS'List_of_people_who_have_lit_the_Olympic_Cauldron'
p20
aS'Maria_Sharapova'
p21
aS'Australia_at_the_2014_Winter_Olympics'
p22
aS'Japan_at_the_2014_Winter_Olympics'
p23
aS'2014_Winter_Olympics_events'
p24
aS'Arenavirus'
p25
aS'1984_Summer_Olympics'
p26
aS'2002_Winter_Olympics'
p27
aS'Ruth_Atkins'
p28
aS'Flight_recorder'
p29
aS'Irina_Rodnina'
p30
aS'Czech_Republic_at_the_2014_Winter_Olympics'
p31
aS'Pathogen'
p32
aS'Great_Britain_at_the_2014_Winter_Olympics'
p33
aS'2014_Olsberg_mid-air_collision'
p34
aS'Sudan_virus'
p35
aS'List_of_Olympic_Games_host_cities'
p36
aS'Thailand_at_the_2014_Winter_Olympics'
p37
aS'1928_Winter_Olympics'
p38
aS'List_of_human_disease_case_fatality_rates'
p39
aS'Ta\xc3\xaf_Forest_virus'
p40
aS'Crimean\xe2\x80\x93Congo_hemorrhagic_fever'
p41
aS'List_of_aircraft_accidents_and_incidents_resulting_in_at_least_50_fatalities'
p42
aS'TKM-Ebola'
p43
aS'Monaco_at_the_2014_Winter_Olympics'
p44
aS'Pulau_Perak'
p45
aS'Powassan_encephalitis'
p46
aS'Bundibugyo_virus'
p47
aS'Mongolia_at_the_2014_Winter_Olympics'
p48
aS'Western_equine_encephalitis_virus'
p49
aS'China_Southern_Airlines'
p50
aS'2014_Algeria_Lockheed_C-130_Hercules_crash'
p51
aS'1896_Summer_Olympics'
p52
aS'Olympic_Stadium'
p53
aS'Circassians'
p54
aS'Guatemala_City'
p55
aS'1906_Intercalated_Games'
p56
aS'Venues_of_the_2014_Winter_Olympics_and_Paralympics'
p57
aS'Ebola_Syndrome'
p58
aS'Sheik_Umar_Khan'
p59
aS'Cross-country_skiing_at_the_2014_Winter_Olympics'
p60
aS'International_reactions_to_the_Malaysia_Airlines_Flight_17_shootdown'
p61
aS'Bobsleigh_at_the_2014_Winter_Olympics'
p62
aS'Sportfive'
p63
aS'List_of_Olympic_venues'
p64
aS'Malaysian_Airline_System_Flight_684'
p65
aS'Patrick_Sawyer'
p66
aS'Malaysia_Airlines'
p67
aS'Summer_Olympic_Games'
p68
aS'West_Nile_virus'
p69
aS'Jamaica_at_the_2014_Winter_Olympics'
p70
aS'List_of_2014_Winter_Olympics_medal_winners'
p71
aS'British_Virgin_Islands_at_the_2014_Winter_Olympics'
p72
aS'Morocco_at_the_2014_Winter_Olympics'
p73
aS'1920_Summer_Olympics'
p74
aS'Portugal_at_the_2014_Winter_Olympics'
p75
aS'Bundibugyo_ebolavirus'
p76
aS'Israel_at_the_2014_Winter_Olympics'
p77
aS'HMS_Tireless_(S88)'
p78
aS'Ireland_at_the_2014_Winter_Olympics'
p79
aS'Brazil_at_the_2014_Winter_Olympics'
p80
aS'Short_track_speed_skating_at_the_2014_Winter_Olympics'
p81
aS'1948_Summer_Olympics'
p82
aS'Simian_foamy_virus'
p83
aS'2014_Winter_Olympic_venues'
p84
aS'Hishammuddin_Hussein'
p85
aS'Venezuela_at_the_2014_Winter_Olympics'
p86
aS'Concerns_and_controversies_at_the_2014_Winter_Olympics'
p87
aS'Search_for_Malaysia_Airlines_Flight_370'
p88
aS'Nordic_combined_at_the_2014_Winter_Olympics'
p89
aS'Marburg_virus_disease'
p90
aS'Malaysia_Airlines_fleet'
p91
aS'Sliding_Center_Sanki'
p92
aS'Cayman_Islands_at_the_2014_Winter_Olympics'
p93
aS'Russian_Grand_Prix'
p94
aS'Brian_Boitano'
p95
aS'Bids_for_the_2014_Winter_Olympics'
p96
aS'Dmitry_Chernyshenko'
p97
aS'Sochi_bid_for_the_2014_Winter_Olympics'
p98
aS'Denmark_at_the_2014_Winter_Olympics'
p99
aS'Ski_jumping'
p100
aS'1996_Summer_Olympics'
p101
aS'Figure_skating_at_the_2014_Winter_Olympics'
p102
aS'Brincidofovir'
p103
aS'Marburg_virus'
p104
aS'2004_Summer_Olympics'
p105
aS'Ameyo_Adadevoh'
p106
aS'Executive_Orders'
p107
aS'Sindbis_virus'
p108
aS'Boeing_777'
p109
aS'Fisht_Olympic_Stadium'
p110
aS'Lassa_fever'
p111
aS'Zimbabwe_at_the_2014_Winter_Olympics'
p112
aS'Firefly_(airline)'
p113
aS'Finland_at_the_2014_Winter_Olympics'
p114
aS'Olympic_symbols'
p115
aS'2014_Ebola_virus_epidemic_in_Guinea'
p116
aS'Intercalated_Games'
p117
aS'Venezuelan_equine_encephalitis_virus'
p118
aS'2028_Summer_Olympics'
p119
aS'Bandy'
p120
aS'LGBT_rights_protests_surrounding_the_2014_Winter_Olympics'
p121
aS'Nations_at_the_2014_Winter_Olympics'
p122
aS'Lithuania_at_the_2014_Winter_Olympics'
p123
aS'1972_Summer_Olympics'
p124
aS'Armenia_at_the_2014_Winter_Olympics'
p125
aS'Togaviridae'
p126
aS'Yellow_fever'
p127
aS'Laura_Biathlon_&_Ski_Complex'
p128
aS'1940_Summer_Olympics'
p129
aS'Sweden_at_the_2014_Winter_Olympics'
p130
aS'List_of_2014_Winter_Olympics_broadcasters'
p131
aS'Ice_Cube_Curling_Center'
p132
aS'Henipavirus'
p133
aS'Andes_virus'
p134
aS'Sudan_ebolavirus'
p135
aS'MegaFon'
p136
aS'Yambuku'
p137
aS'1988_Summer_Olympics'
p138
aS'Krasnaya_Polyana,_Sochi,_Krasnodar_Krai'
p139
aS'Paramyxoviridae'
p140
aS'Malaysia_Airlines_Flight_370_unofficial_disappearance_theories'
p141
aS'Reoviridae'
p142
aS'Ukraine_at_the_2014_Winter_Olympics'
p143
aS'Dagomys_railway_station'
p144
aS'Tonga_at_the_2014_Winter_Olympics'
p145
aS'2016_Summer_Olympics'
p146
aS'Bids_for_Olympic_Games'
p147
aS'Dobrava-Belgrade_virus'
p148
aS"O\\'nyong\\'nyong_virus"
p149
aS'1904_Summer_Olympics'
p150
aS'1972_Winter_Olympics'
p151
aS'Colorado_tick_fever'
p152
aS'International_Olympic_Committee'
p153
aS'1912_Summer_Olympics'
p154
aS'Slovakia_at_the_2014_Winter_Olympics'
p155
aS'List_of_people_who_have_opened_the_Olympic_Games'
p156
aS'Inmarsat'
p157
aS'Olympic_sports'
p158
aS'Natural_reservoir'
p159
aS'Ukrainian_Air_Force_Ilyushin_Il-76_shoot-down'
p160
aS'Salzburg'
p161
aS'Luxembourg_at_the_2014_Winter_Olympics'
p162
aS'Malaysia_Airlines_Flight_2133'
p163
aS'Yaba_monkey_tumor_virus'
p164
aS'Zoonotic_viral_diseases'
p165
aS'Richard_Preston'
p166
aS'List_of_Ebola_patients'
p167
aS'1960_Summer_Olympics'
p168
aS'Viral_hemorrhagic_fever'
p169
aS'Bunyaviridae'
p170
aS'International_Broadcast_Centre'
p171
aS'Ruslan_Zakharov'
p172
aS'Belarus_at_the_2014_Winter_Olympics'
p173
aS'Angus_Houston'
p174
aS'Zika_fever'
p175
aS'Soyuz_TMA-11M'
p176
aS'Bermuda_at_the_2014_Winter_Olympics'
p177
aS'Sochi'
p178
aS'Romania_at_the_2014_Winter_Olympics'
p179
aS'Krasnaya_Polyana_railway_station'
p180
aS'Pakistan_at_the_2014_Winter_Olympics'
p181
aS'Olympic_Oath'
p182
aS'Ski_jumping_at_the_2014_Winter_Olympics'
p183
aS'France_at_the_2014_Winter_Olympics'
p184
aS'Holland_Heineken_House'
p185
aS'Incubation_period'
p186
aS'Chile_at_the_2014_Winter_Olympics'
p187
aS'Winter_Olympic_Games'
p188
aS'List_of_aerial_disappearances'
p189
aS'Boris_Nemtsov'
p190
aS'2014_748_Air_Services_HS_748_crash'
p191
aS'NBC'
p192
aS'Puumala_virus'
p193
aS'Freescale_Semiconductor'
p194
aS'Dokka_Umarov'
p195
aS'BCX4430'
p196
aS'1944_Summer_Olympics'
p197
aS'Malta_at_the_2014_Winter_Olympics'
p198
aS'Satellite_Data_Unit'
p199
aS'Venezuelan_hemorrhagic_fever'
p200
aS'1968_Winter_Olympics'
p201
aS'Bolivian_hemorrhagic_fever'
p202
aS'2010_Winter_Olympics'
p203
aS'Semliki_Forest_virus'
p204
aS'Austria_at_the_2014_Winter_Olympics'
p205
aS'Slovenia_at_the_2014_Winter_Olympics'
p206
aS'Air_Alg\xc3\xa9rie_Flight_5017'
p207
aS'Tanapox'
p208
aS'1992_Summer_Olympics'
p209
aS'1916_Summer_Olympics'
p210
aS'Timor-Leste_at_the_2014_Winter_Olympics'
p211
aS'Hungary_at_the_2014_Winter_Olympics'
p212
aS'Aircraft_Communications_Addressing_and_Reporting_System'
p213
aS'1924_Summer_Olympics'
p214
aS'1960_Winter_Olympics'
p215
aS'2014_Ebola_virus_cases_in_the_United_States'
p216
aS'Nepal_Airlines_Flight_183'
p217
aS'USS_Kidd_(DDG-100)'
p218
aS'Adler_Arena_Skating_Center'
p219
aS'1980_Winter_Olympics'
p220
aS'1928_Summer_Olympics'
p221
aS'New_Zealand_at_the_2014_Winter_Olympics'
p222
aS'1998_Winter_Olympics'
p223
aS'Chinese_Taipei_at_the_2014_Winter_Olympics'
p224
aS'Indian_Olympic_Association'
p225
aS'1976_Summer_Olympics'
p226
aS'Tomnod'
p227
aS'1964_Summer_Olympics'
p228
aS'Hantaan_River_virus'
p229
aS'International_Charter_on_Space_and_Major_Disasters'
p230
aS'Vladislav_Tretiak'
p231
aS"2014_Lao_People\\'s_Liberation_Army_Air_Force_An-74_crash"
p232
aS'Herpes_B_virus'
p233
aS'Malaysia_Airlines_Flight_17'
p234
aS'Cyprus_at_the_2014_Winter_Olympics'
p235
aS'Chronological_summary_of_the_2014_Winter_Olympics'
p236
aS'Uzbekistan_at_the_2014_Winter_Olympics'
p237
aS'Caitlin_Cahow'
p238
aS'Malaysia\xe2\x80\x93Singapore_Airlines'
p239
aS'2018_Winter_Olympics'
p240
aS'Serbia_at_the_2014_Winter_Olympics'
p241
aS'Freestyle_skiing_at_the_2014_Winter_Olympics'
p242
aS'California_encephalitis_virus'
p243
aS'Kyrgyzstan_at_the_2014_Winter_Olympics'
p244
aS'1900_Summer_Olympics'
p245
aS'The_Hot_Zone'
p246
aS'Alkhurma_virus'
p247
aS'Sochi_2014_Olympic_and_Paralympic_Organizing_Committee'
p248
aS'Ice_hockey_at_the_2014_Winter_Olympics'
p249
aS'Hantavirus'
p250
aS'Responses_to_the_Ebola_virus_epidemic_in_West_Africa'
p251
aS'2014_Winter_Olympics_closing_ceremony'
p252
aS'William_Pooley_(Ebola_patient)'
p253
aS'Human_T-lymphotropic_virus_1'
p254
aS'Lazarevskaya_railway_station'
p255
aS'Kyasanur_forest_disease'
p256
aS'Lassa_virus'
p257
aS'Ta\xc3\xaf_Forest_ebolavirus'
p258
aS'Snowboarding_at_the_2014_Winter_Olympics'
p259
aS'TransAsia_Airways_Flight_222'
p260
aS'Biathlon_at_the_2014_Winter_Olympics'
p261
aS'1992_Winter_Olympics'
p262
aS'Port_of_Sochi'
p263
aS'List_of_unrecovered_flight_recorders'
p264
aS'Joint_Agency_Coordination_Centre'
p265
aS'MASwings'
p266
aS'All-time_Olympic_Games_medal_table'
p267
aS'Ebola'
p268
aS'Slopestyle'
p269
aS'Mzymta_River'
p270
aS'Kate_Hansen'
p271
aS'2014_Winter_Paralympics'
p272
aS'Argentina_at_the_2014_Winter_Olympics'
p273
aS'Luge_at_the_2014_Winter_Olympics'
p274
aS'ZMapp'
p275
aS'Kunjin_virus'
p276
aS'Netherlands_at_the_2014_Winter_Olympics'
p277
aS'Norway_at_the_2014_Winter_Olympics'
p278
aS'Banna_virus'
p279
aS'2014_Winter_Olympic_and_Paralympic_Games_mascots'
p280
aS'Powassan_virus'
p281
aS'2014_Romania_Britten-Norman_Islander_crash'
p282
aS'Matthew_Lukwiya'
p283
aS'2022_Winter_Olympics'
p284
aS'International_Air_Transport_Association'
p285
aS'Virgin_Islands_at_the_2014_Winter_Olympics'
p286
aS'Hong_Kong_at_the_2014_Winter_Olympics'
p287
aS'Shanghai_Pudong_International_Airport'
p288
aS'Ebola_virus_epidemic_in_West_Africa'
p289
aS'Brazilian_hemorrhagic_fever'
p290
aS'1932_Winter_Olympics'
p291
aS'2020_Summer_Olympics'
p292
aS'Skeleton_at_the_2014_Winter_Olympics'
p293
aS'Nepal_at_the_2014_Winter_Olympics'
p294
aS'Russian_Olympic_Committee'
p295
aS'MV_Fugro_Equator'
p296
aS'2014_Winter_Olympics_Parade_of_Nations'
p297
aS"Curling_at_the_2014_Winter_Olympics_\xe2\x80\x93_Women\\'s_tournament"
p298
aS'Ross_River_virus'
p299
aS'China_at_the_2014_Winter_Olympics'
p300
aS'2014_Cessna_Citation_560_XLS+_crash'
p301
aS'Ebolavirus'
p302
aS'Albania_at_the_2014_Winter_Olympics'
p303
aS'Kemerovo_tickborne_viral_fever'
p304
aS'Olympic_diploma'
p305
aS'Comprehensive_Nuclear-Test-Ban_Treaty_Organization_Preparatory_Commission'
p306
aS'1924_Winter_Olympics'
p307
aS'Lebanon_at_the_2014_Winter_Olympics'
p308
aS'Vladimir_Putin'
p309
aS'Paraguay_at_the_2014_Winter_Olympics'
p310
aS'Belgium_at_the_2014_Winter_Olympics'
p311
aS'RusSki_Gorki_Jumping_Center'
p312
aS'List_of_Ebola_outbreaks'
p313
aS'MASkargo'
p314
aS'Malaysia_Airlines_Flight_370'
p315
aS'List_of_IOC_country_codes'
p316
aS'1964_Winter_Olympics'
p317
aS'Visa_Inc.'
p318
aS'Reston_virus'
p319
aS'2014_Winter_Olympics_closing_ceremony_flag_bearers'
p320
aS'2012_Summer_Olympics'
p321
aS'Tajikistan_at_the_2014_Winter_Olympics'
p322
aS'Aviation_accidents_and_incidents_in_2014'
p323
aS'Dominica_at_the_2014_Winter_Olympics'
p324
aS'Togo_at_the_2014_Winter_Olympics'
p325
aS'Junin_virus'
p326
aS'1956_Summer_Olympics'
p327
aS'Ross_River_fever'
p328
aS'Eastern_equine_encephalitis_virus'
p329
aS'1980_Summer_Olympics'
p330
aS'Moldova_at_the_2014_Winter_Olympics'
p331
aS'Rhabdoviridae'
p332
aS'1984_Winter_Olympics'
p333
aS'2014_Winter_Olympics_opening_ceremony'
p334
aS'United_States_at_the_2014_Winter_Olympics'
p335
aS'Kazakhstan_at_the_2014_Winter_Olympics'
p336
aS'2014_Winter_Olympics_torch_relay'
p337
aS'Alpine_skiing_at_the_2014_Winter_Olympics'
p338
aS'VSV-EBOV'
p339
aS'Figure_skating'
p340
aS'Bluefin-21'
p341
aS'Aviation_accidents_and_incidents'
p342
aS'Omsk_hemorrhagic_fever'
p343
aS'Chikungunya'
p344
aS'Olympic_Park_railway_station,_Sochi'
p345
aS"Ice_hockey_at_the_2014_Winter_Olympics_\xe2\x80\x93_Women\\'s_tournament"
p346
aS'Lujo_virus'
p347
aS'Monkeypox'
p348
aS'1952_Winter_Olympics'
p349
aS'Peter_Piot'
p350
aS'Liechtenstein_at_the_2014_Winter_Olympics'
p351
aS'Network_Ten'
p352
aS'1940_Winter_Olympics'
p353
aS'Russia_at_the_2014_Winter_Olympics'
p354
aS'Rosa_Khutor_Extreme_Park'
p355
aS'Saint_Louis_encephalitis'
p356
aS'Alina_Kabaeva'
p357
aS'Australian_bat_lyssavirus'
p358
aS'Julia_Ioffe'
p359
aS'Argentine_hemorrhagic_fever'
p360
aS'2014_Winter_Olympics_medal_table'
p361
aS'Sochi_railway_station'
p362
aS'Sin_Nombre_virus'
p363
aS'1936_Summer_Olympics'
p364
aS'Japanese_encephalitis'
p365
aS'Tick-borne_encephalitis_virus'
p366
aS'2026_Winter_Olympics'
p367
aS'Philippines_at_the_2014_Winter_Olympics'
p368
aS'2008_Summer_Olympics'
p369
aS'Favipiravir'
p370
aS'Curling_at_the_2014_Winter_Olympics'
p371
aS'Dengue_fever'
p372
aS'Crisis_in_the_Hot_Zone'
p373
aS'David_Cameron'
p374
aS'Spain_at_the_2014_Winter_Olympics'
p375
aS'1932_Summer_Olympics'
p376
aS'1908_Summer_Olympics'
p377
aS'Peru_at_the_2014_Winter_Olympics'
p378
aS'Poland_at_the_2014_Winter_Olympics'
p379
aS'Mosquito-borne_disease'
p380
aS'2014_Democratic_Republic_of_the_Congo_Ebola_virus_outbreak'
p381
aS'Phoenix_International_Holdings'
p382
aS'2024_Summer_Olympics'
p383
aS"Curling_at_the_2014_Winter_Olympics_\xe2\x80\x93_Men\\'s_tournament"
p384
aS'Formula_One'
p385
aS'RAAF_Base_Pearce'
p386
aS'1988_Winter_Olympics'
p387
aS'Winter_triathlon'
p388
aS'1948_Winter_Olympics'
p389
aS'Iceberg_Skating_Palace'
p390
aS'Canada_at_the_2014_Winter_Olympics'
p391
aS'1952_Summer_Olympics'
p392
aS'1968_Summer_Olympics'
p393
aS'Sochi_Light_Metro'
p394
aS'Zoich'
p395
aS'Russia'
p396
aS'FGI-104'
p397
aS'Outbreak_(film)'
p398
aS'Ebola_River'
p399
aS'Turkey_at_the_2014_Winter_Olympics'
p400
aS'Bushmeat'
p401
aS'San_Marino_at_the_2014_Winter_Olympics'
p402
aS'China\xe2\x80\x93Malaysia_relations'
p403
aS'Estonia_at_the_2014_Winter_Olympics'
p404
aS'1956_Winter_Olympics'
p405
aS'Adlersky_City_District'
p406
aS'Georgia_at_the_2014_Winter_Olympics'
p407
aS'Azerbaijan_at_the_2014_Winter_Olympics'
p408
aS'Yelena_Isinbayeva'
p409
aS'1994_Winter_Olympics'
p410
aS'India_at_the_2014_Winter_Olympics'
p411
aS'Duvenhage_virus'
p412
aS'Rift_Valley_fever'
p413
aS'Haughey_Air_AgustaWestland_AW139_crash'
p414
aS'Olympic_medal'
p415
aS'Andorra_at_the_2014_Winter_Olympics'
p416
aS'1936_Winter_Olympics'
p417
aS'ADV_Ocean_Shield'
p418
aS'Iceland_at_the_2014_Winter_Olympics'
p419
aS'National_Olympic_Committee'
p420
aS'Pierre_de_Coubertin_medal'
p421
aS'Sochi_Autodrom'
p422
aS'Sepahan_Airlines_Flight_5915'
p423
aS'Ethiopian_Airlines_Flight_702'
p424
aS'Olympic_Games'
p425
aS'Sochi_International_Airport'
p426
aS'Rosa_Khutor_Alpine_Resort'
p427
aS'Tick-borne_encephalitis'
p428
aS'Amur_virus'
p429
aS'World_and_Olympic_records_set_at_the_2014_Winter_Olympics'
p430
aS'Shayba_Arena'
p431
aS'Malaysia_Airlines_destinations'
p432
aS'Latvia_at_the_2014_Winter_Olympics'
p433
aS'Greece_at_the_2014_Winter_Olympics'
p434
aS'Macedonia_at_the_2014_Winter_Olympics'
p435
aS'2000_Summer_Olympics'
p436
aS'Lagos_bat_virus'
p437
aS'Chandipura_virus'
p438
aS'2014_Ebola_virus_epidemic_in_Liberia'
p439
aS'Russian_LGBT_propaganda_law'
p440
aS'Air_France_Flight_447'
p441
aS'EventsAt2014WinterOlympics'
p442
aS'Mexico_at_the_2014_Winter_Olympics'
p443
aS'Murray_Valley_encephalitis_virus'
p444
aS'Billie_Jean_King'
p445
aS'Montenegro_at_the_2014_Winter_Olympics'
p446
aS'Adam_Air_Flight_574'
p447
aS'Imeretinsky_Valley'
p448
aS'Mario_&_Sonic_at_the_Sochi_2014_Olympic_Winter_Games'
p449
aS'Malaysian_Airline_System_Flight_653'
p450
aS'Italy_at_the_2014_Winter_Olympics'
p451
aS'Mabalo_Lokela'
p452
aS'1944_Winter_Olympics'
p453
aS'2010s'
p454
aS'Flaviviridae'
p455
aS'Chelyabinsk_meteor'
p456
aS'Search_and_rescue'
p457
aS'2014_SOCATA_TBM_crash'
p458
aS'Germany_at_the_2014_Winter_Olympics'
p459
aS"Ice_hockey_at_the_2014_Winter_Olympics_\xe2\x80\x93_Men\\'s_tournament"
p460
aS'Bolshoy_Ice_Dome'
p461
aS'Arbovirus_encephalitis'
p462
aS'Bosnia_and_Herzegovina_at_the_2014_Winter_Olympics'
p463
aS"Mayinga_N\\'Seka"
p464
aS'Olympic_Games_ceremony'
p465
aS'Croatia_at_the_2014_Winter_Olympics'
p466
aS'Bulgaria_at_the_2014_Winter_Olympics'
p467
aS'Switzerland_at_the_2014_Winter_Olympics'
p468
aS'Ngoy_Mushola'
p469
aS'Olympic_Village'
p470
aS'South_Korea_at_the_2014_Winter_Olympics'
p471
a.