c__builtin__
set
p0
((lp1
I12331013
aI41959431
aI45064
aI42242058
aI19888140
aI43331601
aI42154003
aI42164247
aI42684440
aI42734451
aI42586117
aI42144218
aI731169
aI42174498
aI42850340
aI42178599
aI42831913
aI42559530
aI42341042
aI38621230
aI19980335
aI42467336
aI26527794
aI42289204
aI42283061
aI42174522
aI42174523
aI42704956
aI42844228
aI42170437
aI41799009
aI42170440
aI42281996
aI23042123
aI1507405
aI24984248
aI43776085
aI43337814
aI42152028
aI21661789
aI42231902
aI42569824
aI42143470
aI42317923
aI43225260
aI42607405
aI42299494
aI12509201
aI42205291
aI743534
aI2227341
aI1753448
aI1464435
aI42350711
aI1603707
aI43485312
aI42322050
aI21646699
aI42172550
aI42682503
aI1967468
aI43669643
aI42213713
aI43485328
aI41587736
aI41480338
aI40280212
aI42535064
aI42395804
aI10526877
aI42668190
aI42281119
aI42143430
aI42213542
aI33065127
aI43686059
aI42215596
aI42528941
aI1730738
aI489651
aI42166452
aI42416310
aI42959033
aI43349023
aI37675500
aI17526974
aI24223093
aI42840257
aI30427333
aI21786055
aI42189002
aI40730827
aI42535118
aI42324176
aI41988305
aI6602962
aI14427593
aI9683157
aI42154198
aI42361047
aI28649688
aI42074329
aI17306862
aI42221788
aI42191070
aI42301663
aI42234720
aI41238759
aI38709480
aI42158614
aI42383596
aI19620077
aI42207470
aI43396477
aI37689588
aI42391806
aI28991743
aI42305795
aI43249925
aI41523463
aI39983831
aI42440977
aI42512660
aI42440982
aI25432793
aI43006232
aI25141530
aI4847899
aI30867740
aI43493661
aI42361118
aI42256673
aI42256674
aI42434851
aI36705216
aI42406184
aI2767580
aI15780138
aI42848555
aI42682668
aI33702189
aI23888175
aI65840
aI40917298
aI42193203
aI42320181
aI42301750
aI42539060
aI25153850
aI40757566
aI43188546
aI36960579
aI10061321
aI43379016
aI42529097
aI42361162
aI42225995
aI42144141
aI4440401
aI42726332
aI42254678
aI42199383
aI12063066
aI2515293
aI42297396
aI36221280
aI391524
aI26315109
aI41740647
aI2287976
aI37020009
aI354666
aI42469740
aI42144146
aI2355566
aI41519471
aI15442288
aI42162545
aI32563570
aI1947027
aI42211701
aI42088824
aI4792698
aI42320251
aI39756157
aI40704382
aI43467135
aI180609
aI42625414
aI42168711
aI42144138
aI42144139
aI42144140
aI32280973
aI938385
aI1528210
aI42144148
aI42144149
aI42181014
aI42144153
aI42144154
aI42144155
aI42522010
aI42144158
aI42295712
aI42144161
aI42144162
aI42144163
aI42238377
aI26175914
aI42596783
aI5645384
aI41849268
aI37136825
aI42314171
aI43344317
aI43094462
aI43977157
aI42529224
aI7684553
aI22186442
aI43104716
aI31815595
aI25596367
aI42164689
aI43629015
aI18627032
aI33464793
aI42173229
aI42138083
aI43373030
aI42150376
aI42150380
aI41966061
aI42254077
aI43137520
aI42148337
aI42301949
aI10621439
aI8563204
aI42158597
aI34949642
aI42914471
aI42535438
aI36989455
aI42281488
aI39150100
aI42562070
aI42379799
aI42295832
aI32570116
aI12628507
aI42830364
aI42611231
aI14427568
aI42332706
aI42349093
aI42613288
aI41294377
aI8086063
aI40154547
aI17273399
aI42144312
aI10644916
aI43485303
aI42226238
aI3134020
aI41800261
aI26061382
aI18760296
aI2761291
aI42168908
aI42443344
aI21428827
aI42574429
aI43919966
aI42197599
aI42142305
aI3514978
aI42167739
aI42310245
aI42197607
aI42144360
aI24183403
aI42158700
aI739953
aI42144371
aI12608116
aI42152567
aI42197627
aI43432575
aI43107586
aI30872201
aI43508362
aI40454795
aI42152588
aI29674125
aI22946446
aI42146447
aI17906322
aI43049070
aI1348246
aI41406747
aI42144880
aI42192667
aI42785447
aI41900828
aI36471467
aI28689072
aI42242738
aI42242739
aI486174
aI274889
aI164536
aI42169017
aI42181307
aI43336380
aI38322877
aI1917635
aI42427457
aI42207943
aI1465032
aI42144204
aI9681611
aI42144464
aI38564562
aI42269395
aI19620565
aI21527255
aI42142424
aI42343129
aI42894042
aI42199772
aI42191584
aI13570792
aI37645036
aI793332
aI42224373
aI42767098
aI41845499
aI43350782
aI42226431
aI42267396
aI42910849
aI43338505
aI5778186
aI42535695
aI40917777
aI43510546
aI38819297
aI8874776
aI42162972
aI25858522
aI42240798
aI9681697
aI42643913
aI42848500
aI36987693
aI4993844
aI5408759
aI42959672
aI41427083
aI44002116
aI24183623
aI42305912
aI43533130
aI42142539
aI37078157
aI42644315
aI39776
aI42830691
aI42147302
aI43537256
aI42177387
aI40678252
aI5776237
aI30554990
aI42189680
aI43320467
aI682868
aI42304375
aI42314616
aI43192468
aI43715451
aI42607487
aI42193484
aI42218370
aI42713989
aI43346412
aI23579530
aI42963851
aI42163091
aI42765207
aI42433432
aI42222404
aI170479
aI42152861
aI42349472
aI39054241
aI42638247
aI18521004
aI42142602
aI42228654
aI41421745
aI42423221
aI42304438
aI5033801
aI42613691
aI38847420
aI42212170
aI22232000
aI18535584
aI42277826
aI2706373
aI9415623
aI42179529
aI691148
aI42656930
aI42484686
aI42281935
aI43750352
aI16106450
aI17034196
aI42200021
aI26270678
aI42154968
aI43060188
aI29019103
aI42343392
aI42337249
aI42135180
aI42167267
aI42560484
aI39719909
aI36250598
aI42144745
aI42238954
aI21786109
aI43555824
aI43551912
aI42441715
aI42666996
aI43518188
aI31476726
aI42386423
aI43090939
aI42478589
aI11500542
aI43832321
aI42695682
aI42810374
aI42253484
aI42290186
aI42189836
aI42204174
aI42243096
aI42682884
aI27415578
aI33299483
aI41528350
aI43374085
aI42867547
aI41827505
aI42179627
aI42280371
aI42329137
aI42441778
aI41149493
aI5952567
aI42253368
aI14236729
aI250945
aI43381826
aI42536003
aI10413124
aI42167366
aI42148936
aI3058188
aI40681657
aI42230872
aI40701020
aI42183775
aI42081377
aI42720444
aI42226794
aI42208363
aI42138734
aI42234045
aI486512
aI13922153
aI42222712
aI39766207
aI34977199
aI42202240
aI42114177
aI41518212
aI42238486
aI2287809
aI42218632
aI3286153
aI42925195
aI41995405
aI42720398
aI42290712
aI42704067
aI42208405
aI3155096
aI42398916
aI41460892
aI23461021
aI42722464
aI5784432
aI43338914
aI38802807
aI42261669
aI5719208
aI89260
aI43828400
aI43318449
aI42319027
aI42159533
aI42224828
aI36856010
aI4502722
aI42046659
aI34870468
aI36916421
aI41333958
aI17751239
aI42349768
aI42185932
aI3900618
aI38339788
aI42443983
aI990423
aI42335451
aI24167646
aI7415008
aI42144995
aI42239207
aI42337512
aI42421484
aI42423534
aI39943407
aI42339568
aI42255604
aI40631543
aI42255609
aI42552570
aI43326718
aI42218661
aI41587970
aI42200908
aI42296581
aI43005190
aI42306830
aI15955215
aI42864856
aI2365315
aI43361484
aI42208533
aI30427533
aI42214683
aI429342
aI668959
aI42343727
aI42366263
aI43349305
aI42291423
aI42366269
aI21646656
aI39596939
aI37397829
aI41180487
aI42341705
aI36932938
aI172599
aI1617234
aI7888216
aI42184028
aI42159453
aI14288222
aI2364769
aI42603874
aI42335803
aI42261864
aI42423527
aI5604716
aI33914222
aI42144659
aI42106229
aI21646710
aI42184055
aI42407288
aI42057085
aI3607937
aI2293875
aI42644870
aI42333577
aI33566094
aI42215134
aI42144664
aI39970195
aI42293486
aI8704921
aI42587546
aI31802779
aI42544545
aI42241443
aI42808746
aI25238957
aI42237358
aI14427567
aI43330992
aI14427569
aI34690483
aI14427572
aI42704309
aI14427574
aI42206793
aI14427577
aI14427579
aI14427584
aI14427587
aI14427588
aI14427590
aI17537953
aI10419657
aI20704714
aI37748175
aI42407377
aI42259924
aI11257301
aI42225110
aI21992697
aI21766736
aI42579430
aI42147303
aI42569196
aI42261997
aI42722800
aI9274866
aI43445747
aI48630
aI24538615
aI42249721
aI42214906
aI39780266
aI42794498
aI43494915
aI23201284
aI42288645
aI409566
aI43314697
aI41909770
aI41956876
aI43822605
aI42216976
aI34557461
aI32210456
aI42778137
aI407813
aI21786144
aI21786147
aI36397
aI42144349
aI42780210
aI42208825
aI42224223
aI43445821
aI42313283
aI5666376
aI12561993
aI153162
aI42182223
aI43896400
aI20053
aI42194122
aI41981530
aI42143326
aI42225251
aI42281233
aI33676693
aI43127740
aI43490922
aI13196908
aI30504557
aI42425969
aI42808946
aI42264180
aI15433333
aI42307191
aI43752325
aI42339962
aI24745595
aI42137212
aI765546
aI42374782
aI7530113
aI42294915
aI14427591
aI42604823
aI3120780
aI765581
aI42741390
aI35702415
aI32425616
aI42479249
aI41244227
aI42606228
aI42098327
aI42309272
aI9938585
aI42311326
aI2076321
aI1222804
aI39587099
aI43658919
aI43611079
aI19420844
aI41834158
aI42471091
aI42202804
aI37985973
aI43519670
aI42605413
aI42301113
aI10094267
aI42163902
aI9432770
aI42303173
aI42196678
aI14269047
aI41909965
aI12203732
aI18625486
aI42151641
aI9127643
aI41117406
aI43005668
aI42233573
aI39538414
aI31026927
aI42217205
aI42406185
aI42497786
aI42344746
aI42430212
aI42144726
aI41838342
aI42297102
aI43157008
aI42551058
aI5838612
aI43946415
aI42202902
aI7890712
aI43110170
aI17272603
aI40695584
aI42104615
aI36774724
aI42473260
aI42766126
aI31446831
aI1998642
aI42406195
aI28237621
aI30158647
aI42387264
aI25196512
aI15054662
aI42252103
aI42865292
aI42700087
aI42342220
aI13854542
aI36206417
aI42256210
aI42256212
aI42256215
aI42231640
aI42256217
aI42304062
aI40064860
aI42256221
aI42446687
aI43048861
aI43411300
aI5724404
aI42168166
aI42198888
aI42948457
aI42168170
aI42473324
aI42215277
aI42166128
aI42219377
aI42761272
aI42837652
aI43003771
aI31776636
aI35966846
aI42145665
aI42233731
aI30533566
aI42882953
aI42380951
aI43374914
aI42532751
aI3141522
aI2830229
aI2797462
aI5781399
aI42743709
aI42227616
aI21775134
aI382884
aI43003814
aI42363408
aI41998250
aI43362219
aI43710380
aI42254254
aI42559408
aI27254708
aI42149813
aI14008248
aI42297276
aI2166718
aI42018752
aI17678273
aI42422211
aI42179575
aI13400015
aI42477524
aI43827159
aI42159628
aI43343840
aI42405859
aI39903204
aI42954726
aI25864167
aI42149866
aI42405543
aI42597373
aI42209267
aI30427124
aI42299382
aI43128804
aI42457081
aI42596347
atp2
Rp3
.