(lp0
S'Aviation_accidents_and_incidents_in_2014'
p1
aS'TransAsia_Airways_Flight_222'
p2
aS'Nepal_Airlines_Flight_183'
p3
aS'MASkargo'
p4
aS'2014_Algeria_Lockheed_C-130_Hercules_crash'
p5
aS'Air_Alg\xc3\xa9rie_Flight_5017'
p6
aS'Phoenix_International_Holdings'
p7
aS'Flight_recorder'
p8
aS'Malaysia\xe2\x80\x93Singapore_Airlines'
p9
aS'RAAF_Base_Pearce'
p10
aS'Adam_Air_Flight_574'
p11
aS'List_of_aerial_disappearances'
p12
aS'List_of_unrecovered_flight_recorders'
p13
aS'List_of_aircraft_accidents_and_incidents_resulting_in_at_least_50_fatalities'
p14
aS'International_Charter_on_Space_and_Major_Disasters'
p15
aS'Bluefin-21'
p16
aS'2014_Romania_Britten-Norman_Islander_crash'
p17
aS'China_Southern_Airlines'
p18
aS'2014_Cessna_Citation_560_XLS+_crash'
p19
aS'Boeing_777'
p20
aS'2010s'
p21
aS'Comprehensive_Nuclear-Test-Ban_Treaty_Organization_Preparatory_Commission'
p22
aS'International_Air_Transport_Association'
p23
aS"2014_Lao_People\\'s_Liberation_Army_Air_Force_An-74_crash"
p24
aS'HMS_Tireless_(S88)'
p25
aS'Sepahan_Airlines_Flight_5915'
p26
aS'Inmarsat'
p27
aS'Aviation_accidents_and_incidents'
p28
aS'Pulau_Perak'
p29
aS'2014_Olsberg_mid-air_collision'
p30
aS'Malaysian_Airline_System_Flight_653'
p31
aS'Satellite_Data_Unit'
p32
aS'Firefly_(airline)'
p33
aS'Hishammuddin_Hussein'
p34
aS'Malaysian_Airline_System_Flight_684'
p35
aS'Malaysia_Airlines_destinations'
p36
aS'Malaysia_Airlines_fleet'
p37
aS'Malaysia_Airlines'
p38
aS'Air_France_Flight_447'
p39
aS'HMS_Echo_(H87)'
p40
aS'USS_Kidd_(DDG-100)'
p41
aS'2014_SOCATA_TBM_crash'
p42
aS'Haughey_Air_AgustaWestland_AW139_crash'
p43
aS'Search_and_rescue'
p44
aS'2014_748_Air_Services_HS_748_crash'
p45
aS'MASwings'
p46
aS'Malaysia_Airlines_Flight_2133'
p47
aS'Joint_Agency_Coordination_Centre'
p48
aS'Malaysia_Airlines_Flight_370'
p49
aS'China\xe2\x80\x93Malaysia_relations'
p50
aS'Search_for_Malaysia_Airlines_Flight_370'
p51
aS'ADV_Ocean_Shield'
p52
aS'Angus_Houston'
p53
aS'Shanghai_Pudong_International_Airport'
p54
aS'Tomnod'
p55
aS'MV_Fugro_Equator'
p56
aS'Ethiopian_Airlines_Flight_702'
p57
aS'Ukrainian_Air_Force_Ilyushin_Il-76_shoot-down'
p58
aS'Freescale_Semiconductor'
p59
aS'Aircraft_Communications_Addressing_and_Reporting_System'
p60
aS'Malaysia_Airlines_Flight_370_unofficial_disappearance_theories'
p61
aS'Pulau_Meranti'
p62
aS'International_reactions_to_the_Malaysia_Airlines_Flight_17_shootdown'
p63
aS'Malaysia_Airlines_Flight_17'
p64
a.