c__builtin__
set
p0
((lp1
I41518212
aI43374085
aI41959431
aI3286153
aI41909770
aI43188546
aI32425616
aI938385
aI1528210
aI2830229
aI8704921
aI32210456
aI23201284
aI39587099
aI41981530
aI2706373
aI7684553
aI382884
aI43551912
aI89260
aI36397
aI31446831
aI65840
aI42780210
aI489651
aI43519670
aI5952567
aI164536
aI25153850
aI43127740
aI2166718
aI43381826
aI10061321
aI41800261
aI42142305
aI1465032
aI42529097
aI153162
aI23042123
aI691148
aI765581
aI43750352
aI42200021
aI172599
aI25858522
aI13400015
aI42143326
aI42446687
aI41799009
aI19420844
aI42319027
aI36250598
aI24538615
aI1753448
aI354666
aI42177387
aI43518188
aI41966061
aI43049070
aI486512
aI2293875
aI42299382
aI40631543
aI43326718
atp2
Rp3
.