c__builtin__
set
p0
((lp1
I291328
aI3224065
aI6184450
aI23201284
aI1779205
aI378374
aI41959431
aI1201672
aI89260
aI41909770
aI1827851
aI173070
aI3428369
aI1522519
aI8724
aI116758
aI11304983
aI32210456
aI38027289
aI4682726
aI1184557
aI1143836
aI177181
aI42298910
aI381445
aI33783840
aI370725
aI263168
aI59570
aI1289256
aI5292585
aI39431
aI18470578
aI162863
aI202031
aI42780210
aI20403
aI38058550
aI10061321
aI8129034
aI5754805
aI43374085
aI43381826
aI549443
aI378437
aI13303060
aI14919
aI214665
aI153162
aI23042123
aI25676
aI201485
aI24188088
aI51794
aI1939539
aI15276630
aI1151576
aI50777
aI41981530
aI7018077
aI42143326
aI42142305
aI42083428
aI181557
aI2260228
aI3057255
aI25679
aI146023
aI625969
aI208463
aI928879
aI486512
aI1137609
aI2293875
aI50808
aI21780
aI2539134
aI359551
aI6913666
aI32387
aI41518212
aI378501
aI17051585
aI215176
aI105097
aI1123978
aI765581
aI318094
aI32425616
aI1222633
aI43049070
aI41266839
aI42319027
aI411020
aI344009
aI39053980
aI8383223
aI284101
aI801445
aI81511
aI43551912
aI7189161
aI17846954
aI2139847
aI19420844
aI35420584
aI2875421
aI1465032
aI531634
aI489651
aI160949
aI43519670
aI319671
aI164536
aI3335865
aI159418
aI33534651
aI59575
aI2367169
aI556739
aI42433733
aI25647087
aI606408
aI390497
aI32500939
aI198149
aI1289421
aI7277773
aI30072
aI259082
aI3392211
aI43505365
aI1750
aI43177258
aI36397
aI35664089
aI6642394
aI58319
aI15540445
aI28207
aI28897
aI20841273
aI203793
aI17125
aI159462
aI21043943
aI2017814
aI43518188
aI400623
aI102226
aI14579
aI14580
aI3582590
aI7869952
aI40631543
aI329465
aI642298
aI594303
aI3438844
aI160509
aI43326718
aI36933589
aI542465
aI16642
aI1387051
aI18827012
aI22125831
aI216061
aI965387
aI41229
aI43664655
aI42915088
aI47892
aI353557
aI3546390
aI5952567
aI39587099
aI1062429
aI5405
aI1018282
aI3815200
aI31750
aI198107
aI1042310
aI37925159
aI28679
aI412295
aI2847533
aI31446831
aI65840
aI1173640
aI23439581
aI1962803
aI6452533
aI20249399
aI3286153
aI7453497
aI25153850
aI16275
aI81215
aI5142336
aI43188546
aI18175811
aI410948
aI410949
aI74209
aI2889032
aI42529097
aI103958
aI229943
aI64844
aI484174
aI6858066
aI2663763
aI27661653
aI360278
aI39463407
aI3664218
aI42915146
aI2870621
aI42446687
aI5520
aI541538
aI161192
aI651108
aI435509
aI4162918
aI1753448
aI2056508
aI354666
aI42177387
aI12237677
aI950638
aI2962287
aI1694703
aI745842
aI1885043
aI167284
aI11127
aI390520
aI523641
aI41799009
aI5500
aI319357
aI2830229
aI216355
aI4412802
aI105963
aI39883654
aI77807
aI172599
aI66956
aI66958
aI4797328
aI938385
aI1528210
aI303507
aI276372
aI24355
aI1167766
aI43983603
aI8704921
aI42433435
aI4946332
aI41800261
aI911264
aI23363797
aI762779
aI382884
aI42431910
aI38655912
aI801706
aI43177389
aI964526
aI433583
aI30128
aI26449621
aI48563
aI181173
aI42886585
aI43127740
aI1105341
aI2166718
aI4242881
aI11718082
aI2706373
aI2542022
aI25704904
aI7684553
aI3942903
aI691148
aI26061
aI13400015
aI43750352
aI25174481
aI42200021
aI894584
aI30680
aI25858522
aI19788251
aI35332858
aI1289185
aI4239844
aI2887141
aI36250598
aI1193903
aI14985
aI2844649
aI4543466
aI2490859
aI41966061
aI903150
aI548847
aI180720
aI19963560
aI3002866
aI20823294
aI42299382
aI24538615
aI9079802
aI25758205
aI-1
atp2
Rp3
.