(lp0
S'2022_Winter_Olympics'
p1
aS'1896_Summer_Olympics'
p2
aS'Winter_triathlon'
p3
aS'2024_Summer_Olympics'
p4
aS'David_Cameron'
p5
aS'2004_Summer_Olympics'
p6
aS'Denmark_at_the_2014_Winter_Olympics'
p7
aS'Alpine_skiing_at_the_2014_Winter_Olympics'
p8
aS'1976_Summer_Olympics'
p9
aS'Brian_Boitano'
p10
aS'Adler_railway_station'
p11
aS'Belgium_at_the_2014_Winter_Olympics'
p12
aS'Japan_at_the_2014_Winter_Olympics'
p13
aS'Sliding_Center_Sanki'
p14
aS'Sweden_at_the_2014_Winter_Olympics'
p15
aS'Monaco_at_the_2014_Winter_Olympics'
p16
aS'Germany_at_the_2014_Winter_Olympics'
p17
aS'1998_Winter_Olympics'
p18
aS'Bandy'
p19
aS'1940_Summer_Olympics'
p20
aS'1944_Summer_Olympics'
p21
aS'Dagomys_railway_station'
p22
aS'1994_Winter_Olympics'
p23
aS'Olympic_Games'
p24
aS'Vladimir_Putin'
p25
aS'Mzymta_River'
p26
aS'Kate_Hansen'
p27
aS'1952_Summer_Olympics'
p28
aS'National_Olympic_Committee'
p29
aS'Olympic_symbols'
p30
aS'1908_Summer_Olympics'
p31
aS'Armenia_at_the_2014_Winter_Olympics'
p32
aS'Thailand_at_the_2014_Winter_Olympics'
p33
aS'1944_Winter_Olympics'
p34
aS'Lazarevskaya_railway_station'
p35
aS'Bosnia_and_Herzegovina_at_the_2014_Winter_Olympics'
p36
aS'Russian_Olympic_Committee'
p37
aS'Indian_Olympic_Association'
p38
aS'Pierre_de_Coubertin_medal'
p39
aS'Bolshoy_Ice_Dome'
p40
aS'Canada_at_the_2014_Winter_Olympics'
p41
aS'Maria_Sharapova'
p42
aS'2028_Summer_Olympics'
p43
aS'Sochi_Light_Metro'
p44
aS'India_at_the_2014_Winter_Olympics'
p45
aS'Argentina_at_the_2014_Winter_Olympics'
p46
aS'Shayba_Arena'
p47
aS'Olympic_diploma'
p48
aS'LGBT_rights_protests_surrounding_the_2014_Winter_Olympics'
p49
aS'Andorra_at_the_2014_Winter_Olympics'
p50
aS'Guatemala_City'
p51
aS'Sochi_railway_station'
p52
aS'Formula_One'
p53
aS'Alina_Kabaeva'
p54
aS'San_Marino_at_the_2014_Winter_Olympics'
p55
aS'Figure_skating_at_the_2014_Winter_Olympics'
p56
aS'Turkey_at_the_2014_Winter_Olympics'
p57
aS'List_of_people_who_have_opened_the_Olympic_Games'
p58
aS'Intercalated_Games'
p59
aS'Port_of_Sochi'
p60
aS'2014_Winter_Olympics_events'
p61
aS'Cayman_Islands_at_the_2014_Winter_Olympics'
p62
aS'Serbia_at_the_2014_Winter_Olympics'
p63
aS'1996_Summer_Olympics'
p64
aS'Ski_jumping'
p65
aS'List_of_2014_Winter_Olympics_medal_winners'
p66
aS'Luxembourg_at_the_2014_Winter_Olympics'
p67
aS'Olympic_Games_ceremony'
p68
aS'Nepal_at_the_2014_Winter_Olympics'
p69
aS'2014_Winter_Olympics_Parade_of_Nations'
p70
aS'Olympic_Oath'
p71
aS'Belarus_at_the_2014_Winter_Olympics'
p72
aS'Russian_Grand_Prix'
p73
aS'2020_Summer_Olympics'
p74
aS'2014_Winter_Olympics_closing_ceremony'
p75
aS'Visa_Inc.'
p76
aS'List_of_Olympic_Games_host_cities'
p77
aS'Georgia_at_the_2014_Winter_Olympics'
p78
aS'British_Virgin_Islands_at_the_2014_Winter_Olympics'
p79
aS'Ice_Cube_Curling_Center'
p80
aS'2012_Summer_Olympics'
p81
aS'Sochi_2014_Olympic_and_Paralympic_Organizing_Committee'
p82
aS'Dokka_Umarov'
p83
aS'Philippines_at_the_2014_Winter_Olympics'
p84
aS'China_at_the_2014_Winter_Olympics'
p85
aS'Spain_at_the_2014_Winter_Olympics'
p86
aS'Iceberg_Skating_Palace'
p87
aS'Brazil_at_the_2014_Winter_Olympics'
p88
aS'1988_Winter_Olympics'
p89
aS'Estonia_at_the_2014_Winter_Olympics'
p90
aS'Cyprus_at_the_2014_Winter_Olympics'
p91
aS'Mongolia_at_the_2014_Winter_Olympics'
p92
aS'1972_Summer_Olympics'
p93
aS'LGBT_rights_in_Russia'
p94
aS'1968_Summer_Olympics'
p95
aS'Pride_House'
p96
aS'Lebanon_at_the_2014_Winter_Olympics'
p97
aS'Kyrgyzstan_at_the_2014_Winter_Olympics'
p98
aS'Lithuania_at_the_2014_Winter_Olympics'
p99
aS'1968_Winter_Olympics'
p100
aS'Olympic_Village'
p101
aS'Netherlands_at_the_2014_Winter_Olympics'
p102
aS'1936_Winter_Olympics'
p103
aS'Bermuda_at_the_2014_Winter_Olympics'
p104
aS'Montenegro_at_the_2014_Winter_Olympics'
p105
aS'Bids_for_the_2014_Winter_Olympics'
p106
aS'Olympics'
p107
aS'Olympic_Stadium'
p108
aS'France_at_the_2014_Winter_Olympics'
p109
aS'Togo_at_the_2014_Winter_Olympics'
p110
aS'1932_Winter_Olympics'
p111
aS'Cross-country_skiing_at_the_2014_Winter_Olympics'
p112
aS'1952_Winter_Olympics'
p113
aS'1992_Winter_Olympics'
p114
aS'1980_Winter_Olympics'
p115
aS'Olympic_sports'
p116
aS'United_States_at_the_2014_Winter_Olympics'
p117
aS'Julia_Ioffe'
p118
aS'1948_Summer_Olympics'
p119
aS'Dmitry_Chernyshenko'
p120
aS'Ski_jumping_at_the_2014_Winter_Olympics'
p121
aS'Tajikistan_at_the_2014_Winter_Olympics'
p122
aS'International_Broadcast_Centre'
p123
aS'2026_Winter_Olympics'
p124
aS'1928_Summer_Olympics'
p125
aS'Chile_at_the_2014_Winter_Olympics'
p126
aS'2014_Winter_Olympics_torch_relay'
p127
aS'Moldova_at_the_2014_Winter_Olympics'
p128
aS'Romania_at_the_2014_Winter_Olympics'
p129
aS'Malta_at_the_2014_Winter_Olympics'
p130
aS'1984_Winter_Olympics'
p131
aS'Olympic_Charter'
p132
aS'Olympic_Park_railway_station,_Sochi'
p133
aS'Portugal_at_the_2014_Winter_Olympics'
p134
aS'Adler_Arena_Skating_Center'
p135
aS'Freestyle_skiing_at_the_2014_Winter_Olympics'
p136
aS'1932_Summer_Olympics'
p137
aS'Venues_of_the_2014_Winter_Olympics_and_Paralympics'
p138
aS'Sochi'
p139
aS'Finland_at_the_2014_Winter_Olympics'
p140
aS'1924_Winter_Olympics'
p141
aS'2010_Winter_Olympics'
p142
aS'Sportfive'
p143
aS'Fisht_Olympic_Stadium'
p144
aS'Luge_at_the_2014_Winter_Olympics'
p145
aS'Mario_&_Sonic_at_the_Sochi_2014_Olympic_Winter_Games'
p146
aS'Adlersky_City_District'
p147
aS'Russian_LGBT_propaganda_law'
p148
aS'Switzerland_at_the_2014_Winter_Olympics'
p149
aS'Yelena_Isinbayeva'
p150
aS'Greece_at_the_2014_Winter_Olympics'
p151
aS'Irina_Rodnina'
p152
aS'Slopestyle'
p153
aS'1916_Summer_Olympics'
p154
aS'Peru_at_the_2014_Winter_Olympics'
p155
aS'NBC'
p156
aS'Winter_Olympic_Games'
p157
aS'2002_Winter_Olympics'
p158
aS'1928_Winter_Olympics'
p159
aS'Circassians'
p160
aS'EventsAt2014WinterOlympics'
p161
aS'Boris_Nemtsov'
p162
aS'Tonga_at_the_2014_Winter_Olympics'
p163
aS'Italy_at_the_2014_Winter_Olympics'
p164
aS'Azerbaijan_at_the_2014_Winter_Olympics'
p165
aS'1964_Summer_Olympics'
p166
aS'Paraguay_at_the_2014_Winter_Olympics'
p167
aS'Czech_Republic_at_the_2014_Winter_Olympics'
p168
aS'2014_Winter_Olympics'
p169
aS'International_Olympic_Committee'
p170
aS'Great_Britain_at_the_2014_Winter_Olympics'
p171
aS'RusSki_Gorki_Jumping_Center'
p172
aS'2014_Winter_Olympic_venues'
p173
aS'Russia'
p174
aS'Nordic_combined_at_the_2014_Winter_Olympics'
p175
aS'Nations_at_the_2014_Winter_Olympics'
p176
aS'Iceland_at_the_2014_Winter_Olympics'
p177
aS'1960_Summer_Olympics'
p178
aS'World_and_Olympic_records_set_at_the_2014_Winter_Olympics'
p179
aS'Hong_Kong_at_the_2014_Winter_Olympics'
p180
aS'Venezuela_at_the_2014_Winter_Olympics'
p181
aS'Norway_at_the_2014_Winter_Olympics'
p182
aS'Bulgaria_at_the_2014_Winter_Olympics'
p183
aS'Hungary_at_the_2014_Winter_Olympics'
p184
aS'1988_Summer_Olympics'
p185
aS'2014_Winter_Olympics_medal_table'
p186
aS'1984_Summer_Olympics'
p187
aS"Curling_at_the_2014_Winter_Olympics_\xe2\x80\x93_Women\\'s_tournament"
p188
aS'1920_Summer_Olympics'
p189
aS'Chronological_summary_of_the_2014_Winter_Olympics'
p190
aS'2014_Winter_Paralympics'
p191
aS'1906_Intercalated_Games'
p192
aS'List_of_2014_Winter_Olympics_broadcasters'
p193
aS'Slovakia_at_the_2014_Winter_Olympics'
p194
aS'Figure_skating'
p195
aS'Lists_of_Olympic_medalists'
p196
aS'Imeretinsky_Valley'
p197
aS'2014_Winter_Olympics_closing_ceremony_flag_bearers'
p198
aS'Israel_at_the_2014_Winter_Olympics'
p199
aS"Ice_hockey_at_the_2014_Winter_Olympics_\xe2\x80\x93_Women\\'s_tournament"
p200
aS"Ice_hockey_at_the_2014_Winter_Olympics_\xe2\x80\x93_Men\\'s_tournament"
p201
aS'2000_Summer_Olympics'
p202
aS'Poland_at_the_2014_Winter_Olympics'
p203
aS'1980_Summer_Olympics'
p204
aS'Zoich'
p205
aS'Bids_for_Olympic_Games'
p206
aS'List_of_IOC_country_codes'
p207
aS'Virgin_Islands_at_the_2014_Winter_Olympics'
p208
aS'2014_Winter_Olympics_opening_ceremony'
p209
aS'Network_Ten'
p210
aS'Skeleton_at_the_2014_Winter_Olympics'
p211
aS'Sochi_International_Airport'
p212
aS'Concerns_and_controversies_at_the_2014_Winter_Olympics'
p213
aS'Olympic_medal'
p214
aS'MegaFon'
p215
aS'Sochi_bid_for_the_2014_Winter_Olympics'
p216
aS'Russia_at_the_2014_Winter_Olympics'
p217
aS'1904_Summer_Olympics'
p218
aS'List_of_Olympic_torch_relays'
p219
aS'Macedonia_at_the_2014_Winter_Olympics'
p220
aS'Pakistan_at_the_2014_Winter_Olympics'
p221
aS'Salzburg'
p222
aS'New_Zealand_at_the_2014_Winter_Olympics'
p223
aS'Krasnaya_Polyana_railway_station'
p224
aS'1992_Summer_Olympics'
p225
aS'Jamaica_at_the_2014_Winter_Olympics'
p226
aS'Holland_Heineken_House'
p227
aS'1956_Winter_Olympics'
p228
aS'1956_Summer_Olympics'
p229
aS'1960_Winter_Olympics'
p230
aS'1972_Winter_Olympics'
p231
aS'1976_Winter_Olympics'
p232
aS'Timor-Leste_at_the_2014_Winter_Olympics'
p233
aS'All-time_Olympic_Games_medal_table'
p234
aS'Caitlin_Cahow'
p235
aS'South_Korea_at_the_2014_Winter_Olympics'
p236
aS'Slovenia_at_the_2014_Winter_Olympics'
p237
aS'Snowboarding_at_the_2014_Winter_Olympics'
p238
aS'1936_Summer_Olympics'
p239
aS'Summer_Olympic_Games'
p240
aS'2006_Winter_Olympics'
p241
aS'2008_Summer_Olympics'
p242
aS'Kazakhstan_at_the_2014_Winter_Olympics'
p243
aS'1964_Winter_Olympics'
p244
aS'Chinese_Taipei_at_the_2014_Winter_Olympics'
p245
aS'Billie_Jean_King'
p246
aS'Dominica_at_the_2014_Winter_Olympics'
p247
aS'Krasnaya_Polyana,_Sochi,_Krasnodar_Krai'
p248
aS"Curling_at_the_2014_Winter_Olympics_\xe2\x80\x93_Men\\'s_tournament"
p249
aS'Morocco_at_the_2014_Winter_Olympics'
p250
aS'Ruslan_Zakharov'
p251
aS'Short_track_speed_skating_at_the_2014_Winter_Olympics'
p252
aS'Soyuz_TMA-11M'
p253
aS'2018_Winter_Olympics'
p254
aS'Laura_Biathlon_&_Ski_Complex'
p255
aS'Australia_at_the_2014_Winter_Olympics'
p256
aS'1940_Winter_Olympics'
p257
aS'1900_Summer_Olympics'
p258
aS'Liechtenstein_at_the_2014_Winter_Olympics'
p259
aS'Biathlon_at_the_2014_Winter_Olympics'
p260
aS'Uzbekistan_at_the_2014_Winter_Olympics'
p261
aS'Bobsleigh_at_the_2014_Winter_Olympics'
p262
aS'Austria_at_the_2014_Winter_Olympics'
p263
aS'Curling_at_the_2014_Winter_Olympics'
p264
aS'Rosa_Khutor_Extreme_Park'
p265
aS'Ireland_at_the_2014_Winter_Olympics'
p266
aS'Iran_at_the_2014_Winter_Olympics'
p267
aS'Vladislav_Tretiak'
p268
aS'Sochi_Autodrom'
p269
aS'1924_Summer_Olympics'
p270
aS'List_of_Olympic_venues'
p271
aS'1948_Winter_Olympics'
p272
aS'1912_Summer_Olympics'
p273
aS'Albania_at_the_2014_Winter_Olympics'
p274
aS'List_of_people_who_have_lit_the_Olympic_Cauldron'
p275
aS'Chelyabinsk_meteor'
p276
aS'2016_Summer_Olympics'
p277
aS'Zimbabwe_at_the_2014_Winter_Olympics'
p278
aS'Latvia_at_the_2014_Winter_Olympics'
p279
aS'2014_Winter_Olympic_and_Paralympic_Games_mascots'
p280
aS'Mexico_at_the_2014_Winter_Olympics'
p281
aS'Rosa_Khutor_Alpine_Resort'
p282
aS'Ukraine_at_the_2014_Winter_Olympics'
p283
aS'Ice_hockey_at_the_2014_Winter_Olympics'
p284
aS'Croatia_at_the_2014_Winter_Olympics'
p285
a.