c__builtin__
set
p0
((lp1
S'Russia'
p2
aS'Bandy'
p3
aS'MegaFon'
p4
aS'Salzburg'
p5
aS'Sochi'
p6
aS'Sportfive'
p7
aS'Circassians'
p8
aS'NBC'
p9
aS'Slopestyle'
p10
aS'Zoich'
p11
aS'Dominica'
p12
atp13
Rp14
.