c__builtin__
set
p0
((lp1
I178181
aI309257
aI622606
aI38879250
aI530455
aI35772445
aI239646
aI41392159
aI159776
aI274471
aI26056745
aI38957
aI22576
aI32817
aI6658099
aI84318
aI1194038
aI731192
aI690233
aI4921404
aI41388093
aI9383998
aI41787455
aI7309377
aI2441283
aI5707850
aI180919
aI772173
aI12138575
aI41388120
aI59494
aI41388137
aI29497454
aI27168879
aI9564275
aI41388149
aI6166648
aI233596
aI41369726
aI1568895
aI38754432
aI41369735
aI41388171
aI18944140
aI41794243
aI176836
aI38754458
aI658161
aI19087517
aI32927
aI38754466
aI38491163
aI41388197
aI14200245
aI35102892
aI41388206
aI41388207
aI1243315
aI30906
aI41388219
aI12146882
aI14533
aI41388231
aI143562
aI21197
aI86224
aI6832338
aI36137171
aI49369
aI5462234
aI38754523
aI583901
aI30223056
aI41388262
aI38754536
aI38490834
aI38754547
aI88314
aI3635451
aI41388284
aI307455
aI37830916
aI22036741
aI19089671
aI385290
aI18403599
aI741631
aI1603870
aI41939233
aI2186971
aI342308
aI40655153
aI8794420
aI4405
aI2650423
aI41881914
aI41794271
aI40826223
aI895299
aI147782
aI713037
aI41560399
aI40229202
aI41726294
aI33113
aI4444
aI38480222
aI1440096
aI26126690
aI38480229
aI227687
aI42438716
aI18317674
aI291180
aI960884
aI24949
aI41429371
aI1010054
aI22006153
aI27019
aI31332080
aI309668
aI4610471
aI1462700
aI1235376
aI5882291
aI113080
aI40851898
aI163231
aI41429436
aI41265598
aI1190336
aI1892802
aI14790
aI27566
aI8116691
aI381399
aI8645085
aI13941840
aI305637
aI41009640
aI1841916
aI455152
aI6644
aI3992056
aI41429498
aI38552063
aI23041
aI12810
aI18227723
aI37628438
aI4631
aI37628442
aI36878875
aI31115
aI1989149
aI24961567
aI12579360
aI113189
aI1798694
aI911912
aI113198
aI39705136
aI25168436
aI1040956
aI178749
aI33559103
aI41394752
aI6721
aI49733
aI940616
aI12106313
aI4098637
aI5794383
aI24470105
aI41394778
aI9650779
aI36694620
aI12730
aI10854
aI940648
aI64105
aI1616492
aI390930
aI41632371
aI72311
aI41757305
aI41394811
aI37604726
aI12106366
aI72319
aI39178880
aI303749
aI68235
aI53900
aI39576
aI40698521
aI12106398
aI930928
aI24453796
aI354367
aI1098416
aI407667
aI180916
aI38490807
aI434872
aI3338937
aI41765562
aI256702
aI14967488
aI19137
aI15043
aI8900
aI156359
aI162504
aI113357
aI36877773
aI113360
aI650360
aI113362
aI25448587
aI92886
aI320217
aI32111
aI18211556
aI9595622
aI12813031
aI914869
aI6710001
aI41810675
aI84727
aI40056
aI38490875
aI54012
aI7391204
aI9233850
aI11315968
aI39412482
aI563975
aI38490888
aI888001
aI39693
aI2831
aI43797
aI31507229
aI1313566
aI43776806
aI41375537
aI38490920
aI39721
aI15147
aI28992302
aI25391
aI959286
aI38490944
aI40829762
aI38754443
aI82757
aI82762
aI41794380
aI113485
aI41501519
aI38490963
aI41560916
aI25431
aI34399
aI40837980
aI25045856
aI82785
aI394082
aI861476
aI228211
aI41692990
aI25748
aI707451
aI23420
aI1457022
aI17552257
aI41425801
aI165015
aI23595916
aI11152
aI82755
aI899990
aI19086236
aI211869
aI211870
aI211872
aI12880802
aI26779
aI1516453
aI37301162
aI38491051
aI72622
aI12610483
aI37319604
aI41659321
aI13243
aI26227647
aI95171
aI28992453
aI385990
aI365511
aI5630920
aI41153484
aI25762
aI4727758
aI38829007
aI38491091
aI4144084
aI261077
aI38829019
aI72671
aI24589280
aI961505
aI5628899
aI38829028
aI31532005
aI8133614
aI961522
aI41108467
aI297972
aI38491125
aI58900
aI31750
aI769537
aI474125
aI257197
aI474128
aI24408
aI25811989
aI41628697
aI1188890
aI4817947
aI15946780
aI38487075
aI38312796
aI5639
aI2872366
aI175912
aI7629873
aI19088436
aI31797
aI1217591
aI148536
aI1623160
aI1838142
aI1838143
aI7243
aI14613580
aI32197712
aI230484
aI287832
aI5946459
aI42355808
aI42101857
aI41845860
aI25706
aI25707
aI25709
aI187504
aI5178882
aI38474870
aI40055
aI17528
aI40057
aI40058
aI2641023
aI1610886
aI15495
aI246920
aI2839690
aI38754498
aI2176142
aI1180819
aI625812
aI26389653
aI5618839
aI41782424
aI631961
aI25068706
aI83112
aI66730
aI83115
aI66732
aI212141
aI424477
aI38155440
aI175281
aI40654004
aI861366
aI41573562
aI25148603
aI595137
aI37604552
aI1668302
aI146640
aI42195
aI42196
aI37897430
aI50399
aI13663456
aI38754512
aI165094
aI30899433
aI1642023
aI25148655
aI26055922
aI31004883
aI37604598
aI31614202
aI12129536
aI37604609
aI18138370
aI668940
aI41782829
aI50449
aI29166867
aI21780
aI353557
aI41309463
aI5407
aI40826146
aI39032100
aI83238
aI36703531
aI28312877
aI37604657
aI1588532
aI182153
aI3386
aI28230973
aI7208255
aI41194820
aI26481991
aI21836
aI41194829
aI2311504
aI42028379
aI1363292
aI19004
aI38585696
aI40657808
aI11957602
aI2688355
aI31194469
aI692796
aI40298
aI42350
aI22353469
aI37779
aI136566
aI66936
aI28028
aI41782658
aI34699841
aI177546
aI25068939
aI39527822
aI40335
aI39775632
aI32152
aI30138
aI37604765
aI41442719
aI41493925
aI43177382
aI17075623
aI44456
aI37604780
aI1815982
aI26188701
aI4091317
aI17846
aI12152250
aI30975423
aI30899648
aI41782721
aI177602
aI40652231
aI211874
aI30158
aI37602770
aI33895892
aI29003226
aI148956
aI22384110
aI2127346
aI1164793
aI29003258
aI19134719
aI40211967
aI27213313
aI8351234
aI48644
aI8351239
aI1807880
aI26043915
aI419342
aI177681
aI36828692
aI36844991
aI56865
aI12106331
aI77745
aI56872
aI169515
aI169516
aI169517
aI41375290
aI89659
aI1701436
aI16015626
aI1451586
aI4596848
aI964173
aI40902223
aI3265465
aI42286685
aI41375327
aI11874
aI625254
aI41647718
aI41392060
aI26265196
aI41309805
aI6030960
aI5789302
aI1494648
aI19920508
aI41375357
aI34069
aI48768
aI7741058
aI17380995
aI939653
aI11015817
aI41309834
aI52891
aI28368540
aI41375398
aI147116
aI26301
aI41375429
aI40115918
aI893219
aI291790
aI41440985
aI38416091
aI1869533
aI849630
aI749283
aI28284
aI41441002
aI17880813
aI390896
aI39263987
aI41375476
aI3582590
aI169719
aI933624
aI30262228
aI1113854
aI22271
aI83243
aI698116
aI376581
aI368390
aI41973511
aI71432
aI41375506
aI38678
aI18991065
aI26316568
aI517916
aI5089056
aI2549543
aI532264
aI31508273
aI36288311
aI28478
aI38297909
aI53056
aI38754559
aI287713
aI38528850
aI22360
aI25978713
aI534366
aI483169
aI21384712
aI2195309
aI41215861
aI3049336
aI87930
aI2582399
aI27683
aI31238022
aI1433480
aI718729
aI917386
aI241547
aI32652
aI38829965
aI41783185
aI39292822
aI384925
aI83870
aI18540449
aI886693
aI3729318
aI2582439
aI31512491
aI77741
aI77743
aI350129
aI589749
aI36454328
aI40429499
aI40429500
aI20512709
aI14272457
aI3927248
aI67537
aI38123478
aI15012
aI94180
aI180200
aI903150
aI511996
aI-1
atp2
Rp3
.