c__builtin__
set
p0
((lp1
I40050689
aI41517059
aI41951238
aI40779783
aI26230795
aI41992205
aI8077327
aI26173457
aI38879250
aI25100307
aI41861141
aI41738265
aI33529882
aI22347805
aI17621030
aI20119592
aI38166572
aI26173486
aI32817
aI17506355
aI41035767
aI33529913
aI13729850
aI10616891
aI41787455
aI41970973
aI3309635
aI42287174
aI25092167
aI33529930
aI12853323
aI15278158
aI41934931
aI4128854
aI34286583
aI42352728
aI13590617
aI41771098
aI18923612
aI21438560
aI41603088
aI2736226
aI26173541
aI41566311
aI41222249
aI41754730
aI42123372
aI40431634
aI42098799
aI33529969
aI40431635
aI3629172
aI41951349
aI34676855
aI41369726
aI14803071
aI42000516
aI26173573
aI41369735
aI31637641
aI41427083
aI19120269
aI41902225
aI41558166
aI41394752
aI26468505
aI31621275
aI36528284
aI1400992
aI41885859
aI12796068
aI10379429
aI41910439
aI740039
aI35102892
aI30073006
aI43262129
aI26386610
aI15499452
aI41689279
aI9765058
aI30580931
aI5326371
aI41935045
aI32260296
aI33530057
aI38349517
aI1220817
aI41951442
aI41992403
aI4128982
aI42000601
aI41722074
aI4128990
aI30695648
aI113360
aI41238754
aI41238757
aI26222822
aI42008808
aI41558252
aI41238768
aI37601521
aI36864242
aI41558259
aI41894134
aI42000637
aI6078719
aI38617344
aI39321859
aI31465733
aI41951495
aI41369865
aI21750027
aI28811533
aI42000656
aI4161809
aI32563480
aI15425817
aI42000666
aI1450267
aI41435420
aI43540766
aI40182048
aI36845017
aI26468643
aI26542372
aI42000679
aI41861418
aI57644
aI25968942
aI42000687
aI41935153
aI39174451
aI40182068
aI42000693
aI500022
aI39551289
aI40182074
aI34595131
aI2793788
aI41599297
aI28661131
aI4161860
aI42123589
aI14786886
aI31261001
aI5521739
aI11895118
aI25968981
aI40182108
aI40182111
aI39240032
aI8545
aI42000738
aI40182115
aI25092453
aI3629414
aI40182119
aI16449896
aI42353002
aI40182128
aI40182130
aI41616787
aI41929686
aI21348731
aI1856917
aI39371140
aI38754498
aI38551945
aI42279307
aI4361221
aI41517461
aI33530263
aI42664344
aI4161945
aI13844890
aI34767260
aI41575070
aI38551967
aI2154914
aI37451163
aI4636742
aI25969063
aI9068974
aI31465906
aI5882291
aI41861559
aI41951672
aI13674875
aI40182206
aI40182209
aI42664386
aI1597891
aI42346773
aI40182214
aI42664392
aI4161993
aI40182220
aI28082637
aI40182225
aI32326102
aI37470680
aI4367780
aI3629530
aI42664412
aI41925370
aI907981
aI4063717
aI33530343
aI41009640
aI74217
aI26247658
aI31498731
aI41574892
aI37913069
aI3006958
aI15204848
aI41443829
aI33350134
aI41951736
aI25526777
aI41976316
aI38552063
aI42664448
aI25496320
aI41436587
aI33530374
aI42664455
aI42394121
aI6464010
aI41894502
aI42664466
aI12091924
aI4071959
aI41443864
aI31947524
aI3629594
aI6997423
aI2834972
aI41804319
aI1950240
aI35506950
aI41959975
aI40114597
aI30327339
aI22766126
aI41951791
aI26020616
aI4057113
aI90677
aI26214967
aI24183355
aI31174969
aI41443904
aI26886722
aI33530435
aI37604726
aI40911431
aI41835276
aI41525834
aI25092684
aI33530447
aI41960016
aI2835025
aI41394778
aI363279
aI42025565
aI41607774
aI30387447
aI2105953
aI42137019
aI41550438
aI41550439
aI31007339
aI42664559
aI41632371
aI41394811
aI33530492
aI2835070
aI1188479
aI3498627
aI4203144
aI434827
aI42664590
aI40589130
aI33530518
aI40698521
aI950383
aI2835100
aI15934109
aI2048670
aI5573
aI39510691
aI31294116
aI2835109
aI41181297
aI25698985
aI35668653
aI41714350
aI38157085
aI3211379
aI180916
aI26313397
aI1426102
aI180919
aI30933689
aI41982434
aI13730493
aI1251857
aI7823477
aI8952608
aI42222274
aI950980
aI25305799
aI18055880
aI25305801
aI41427663
aI39371476
aI41527889
aI2835161
aI4060623
aI38290141
aI41850320
aI41870050
aI12092135
aI41996412
aI36766443
aI8880877
aI41881416
aI26821361
aI3056372
aI1904766
aI2835190
aI41909033
aI26338040
aI22586105
aI14426875
aI41886460
aI41779966
aI11010816
aI22635265
aI41517826
aI770822
aI41874903
aI25879308
aI41935635
aI35423705
aI40829724
aI31507229
aI6841118
aI377635
aI41772830
aI8086314
aI21749895
aI25879341
aI28992302
aI25391
aI40026928
aI40829747
aI41796071
aI33529993
aI34702138
aI25699133
aI1475390
aI811839
aI37897430
aI82755
aI2532164
aI82757
aI37299015
aI41968386
aI82762
aI41886539
aI36993702
aI26288977
aI37593947
aI40837980
aI19323706
aI82785
aI551595
aI19743593
aI34985478
aI10838898
aI12387187
aI1690430
aI41952119
aI40044010
aI41952126
aI39551874
aI42017668
aI2344050
aI42255238
aI41757305
aI19317641
aI205707
aI6128526
aI41649040
aI42091410
aI32146325
aI41862041
aI41468826
aI28304284
aI42928634
aI2835362
aI37938083
aI5276582
aI41782829
aI13650759
aI42017711
aI9143217
aI3990451
aI41909065
aI66488
aI12387257
aI40633277
aI41960384
aI41885856
aI31515589
aI41649096
aI35972044
aI113485
aI26158034
aI30262228
aI41919446
aI3195863
aI25953245
aI41919456
aI2671586
aI41935843
aI31532005
aI41993190
aI14902249
aI4361042
aI18654190
aI58352
aI41108467
aI42632181
aI40723446
aI34522107
aI41919487
aI41878529
aI41550854
aI39114241
aI967692
aI40723472
aI27804692
aI13100053
aI41583639
aI41591834
aI38773787
aI28959774
aI34522145
aI38487075
aI34587684
aI40723493
aI41845798
aI40431793
aI2303019
aI13579784
aI18637879
aI148536
aI25657
aI15533114
aI41935937
aI34890820
aI12756038
aI41714760
aI41936396
aI42009676
aI41673805
aI6440015
aI9159762
aI8684628
aI41518166
aI13384548
aI43590746
aI42050651
aI41436255
aI230497
aI5833826
aI40723556
aI40723559
aI33530044
aI39437418
aI31720555
aI1352814
aI41460847
aI42017904
aI26158194
aI8234102
aI41993339
aI30655612
aI42625898
aI41436286
aI40431863
aI42009728
aI41673842
aI34907271
aI246920
aI40731785
aI42026124
aI40322194
aI36594835
aI12209007
aI41460892
aI36844774
aI25068706
aI4662437
aI35726502
aI41813159
aI83112
aI41518249
aI83115
aI41780396
aI41909106
aI27279560
aI26363061
aI33490104
aI41567423
aI41907744
aI41673922
aI320708
aI37602501
aI3073223
aI10339530
aI20341964
aI42195
aI42196
aI31188181
aI18375894
aI16590039
aI40719106
aI213199
aI3787642
aI39830750
aI40431824
aI255202
aI402659
aI884945
aI23094504
aI40431826
aI41551088
aI42127571
aI107765
aI36193526
aI33531130
aI17425663
aI169515
aI1735553
aI30057736
aI4211977
aI21218572
aI41960717
aI4556046
aI169517
aI15164689
aI4228371
aI34069
aI41829654
aI49369
aI33531162
aI83238
aI4056361
aI83243
aI33531180
aI28312877
aI26232113
aI263476
aI31933749
aI37569852
aI30057792
aI42015372
aI42625931
aI41600324
aI15754566
aI42015645
aI39347532
aI2311504
aI33528290
aI41586915
aI33531220
aI26068312
aI39412482
aI41429436
aI26535261
aI33530085
aI38585696
aI36579363
aI40430207
aI41518435
aI26226350
aI40756588
aI29418861
aI42350
aI3229041
aI31729014
aI41739639
aI33531257
aI41816837
aI6956415
aI30828563
aI33531267
aI2363162
aI25068939
aI1451586
aI39527822
aI14853520
aI664978
aI39970195
aI41846164
aI66972
aI17506544
aI7325091
aI239012
aI41493925
aI40431857
aI26068393
aI41760327
aI39716268
aI31860141
aI4367791
aI21554608
aI42625863
aI40431859
aI14427572
aI27108790
aI6210999
aI19160020
aI1218122
aI41780672
aI31286721
aI14427587
aI14427588
aI1474806
aI14427590
aI42026440
aI41899596
aI31532490
aI38348235
aI4482509
aI41436626
aI41909155
aI3442132
aI40431899
aI41969112
aI31532505
aI27731421
aI28968414
aI40431867
aI21718500
aI14427626
aI36791789
aI21775857
aI39552498
aI12240378
aI41988100
aI29148671
aI37258752
aI25511427
aI509446
aI26117640
aI4826636
aI419342
aI36234768
aI3959217
aI41565849
aI41600539
aI15304220
aI3917347
aI41929649
aI41900811
aI41936426
aI31618547
aI15877681
aI41829940
aI2515209
aI17229368
aI30762554
aI4097599
aI27698753
aI14001730
aI35989062
aI26786
aI33526116
aI26109514
aI41600587
aI28034638
aI10069585
aI41387604
aI4138582
aI5729209
aI7751258
aI28968539
aI31524446
aI42022501
aI41313889
aI41952868
aI38348389
aI41910545
aI41936487
aI26265196
aI41600622
aI36578928
aI1803889
aI28157555
aI42731124
aI99961
aI41518718
aI2989537
aI3696256
aI44000899
aI42032523
aI43353733
aI44000902
aI44000876
aI44000907
aI41445005
aI21958936
aI42075795
aI7325333
aI44000922
aI41735791
aI40431898
aI7759519
aI17327776
aI43995512
aI43843867
aI10069670
aI8005233
aI902824
aI42070300
aI41739946
aI11716269
aI6792879
aI41952883
aI44000948
aI26683063
aI44000952
aI44000953
aI41879226
aI41952957
aI39626432
aI3008194
aI4089613
aI41223883
aI41682636
aI44000977
aI893219
aI22709972
aI44000981
aI14853849
aI27422612
aI41909199
aI41494239
aI6792932
aI42665701
aI526054
aI19920508
aI42665706
aI33530151
aI30197485
aI32876273
aI44001010
aI42665715
aI10012404
aI44001016
aI44001017
aI44000895
aI3630844
aI41838337
aI27652395
aI4081413
aI21628678
aI8922891
aI4220684
aI30623501
aI44001038
aI26519312
aI41994002
aI42665747
aI44001044
aI2869013
aI44001046
aI44001047
aI41953048
aI14231322
aI517916
aI44001053
aI23308062
aI42665759
aI3188513
aI42665765
aI40182065
aI25077544
aI8341295
aI42665776
aI31508273
aI15214386
aI41435443
aI32186676
aI39241530
aI43247817
aI36838091
aI20776767
aI41806816
aI26117954
aI33367876
aI38297909
aI961505
aI8341323
aI2336589
aI16975696
aI38528850
aI44001107
aI13772629
aI41527127
aI25978713
aI40431930
aI6198227
aI35122149
aI44001121
aI18792763
aI40527717
aI38176614
aI44000913
aI42256232
aI1004721
aI41781098
aI38930288
aI25339761
aI19826323
aI30762870
aI25814904
aI26194239
aI2582399
aI25814912
aI42665858
aI4220803
aI591748
aI36956037
aI31238022
aI25956673
aI9766792
aI182153
aI41576332
aI24594319
aI41527184
aI38471570
aI43247507
aI42665876
aI42665878
aI43247513
aI5618839
aI22738586
aI83870
aI43247520
aI43247522
aI886693
aI42665894
aI41928616
aI42665898
aI3205037
aI42665907
aI2885559
aI42665913
aI31238075
aI40429500
aI41420742
aI41928648
aI41876471
aI39438284
aI41928654
aI6211537
aI42665938
aI42665939
aI42665940
aI8118606
aI43124703
aI35506144
aI26118115
aI41375398
aI41953256
aI43247594
aI15291437
aI20514800
aI37602984
aI7325683
aI3206899
aI3789140
aI4212731
aI19032060
aI4220927
aI18286592
aI747522
aI21735427
aI43247621
aI1886217
aI11438091
aI42846220
aI4556813
aI39954447
aI43247635
aI6129685
aI4220953
aI43730973
aI41879583
aI21858337
aI26382683
aI755749
aI15378472
aI305193
aI43247659
aI6670381
aI33810479
aI14985265
aI41224247
aI731192
aI41879220
aI2916703
aI41052220
aI43247677
aI17950782
aI41994303
aI40431895
aI14829633
aI41565852
aI18704451
aI36759622
aI26159179
aI772173
aI41871438
aI41900011
aI43247699
aI751289
aI41388120
aI25634905
aI12986459
aI43231324
aI2877533
aI43378783
aI40430103
aI11446372
aI165991
aI41388137
aI9468325
aI41838269
aI4057201
aI41363571
aI41388149
aI42158202
aI35080315
aI42010749
aI41994367
aI5499008
aI12167300
aI20952769
aI41889920
aI41388171
aI41953426
aI13649019
aI41736071
aI108697
aI38455455
aI8384880
aI31230114
aI9267364
aI41388197
aI34261160
aI40913068
aI41388206
aI41388207
aI25372849
aI370871
aI30542008
aI41994427
aI43247804
aI1755332
aI25926689
aI41388231
aI16182352
aI41650377
aI8374474
aI39446731
aI44001486
aI28068048
aI42076369
aI35735763
aI41436558
aI4155607
aI44001497
aI44001498
aI44001501
aI44001508
aI4794597
aI41388262
aI41896167
aI3884226
aI43247852
aI43247854
aI41513341
aI41552112
aI14526706
aI44000979
aI44001525
aI30599414
aI42338552
aI42071764
aI41388284
aI43247869
aI41920768
aI26364162
aI928007
aI8292616
aI9079049
aI37325067
aI40182033
aI42019086
aI42019087
aI44001554
aI44001555
aI41708590
aI7325401
aI26098272
aI25807137
aI23062818
aI7096611
aI42043685
aI11643178
aI26192175
aI29493554
aI25717043
aI28509695
aI663945
aI42715449
aI42076475
aI36759871
aI36759872
aI2566470
aI23810444
aI41560399
aI32368979
aI41863510
aI4444
aI41682660
aI38480222
aI1681761
aI33319995
aI38480229
aI34531690
aI41519471
aI31230320
aI15935857
aI936313
aI4106618
aI41429371
aI39581418
aI3795330
aI51593
aI4172174
aI754072
aI67986
aI41904534
aI26654447
aI41437596
aI27625885
aI27721878
aI5846084
aI15993249
aI354723
aI38914468
aI17189285
aI44001009
aI26364328
aI41265578
aI38480300
aI41707949
aI26274222
aI9481875
aI38480305
aI1624498
aI15202035
aI41978293
aI41863608
aI41920953
aI41437628
aI41265598
aI26364356
aI41978309
aI41978311
aI41978315
aI1034700
aI17844688
aI14788344
aI41560533
aI41978327
aI21973466
aI41978333
aI40182040
aI20687328
aI12241377
aI8514020
aI4057580
aI34146798
aI42043888
aI34130423
aI42019321
aI41429498
aI30099963
aI30009853
aI125438
aI33352191
aI26266112
aI25111046
aI40430087
aI41691658
aI29665804
aI29755920
aI40598616
aI19474965
aI42380377
aI41929818
aI31238686
aI41708063
aI40430122
aI41883399
aI42666542
aI41011759
aI3312176
aI41265713
aI41265716
aI25717301
aI42666554
aI25111101
aI7858750
aI3426879
aI41909345
aI43518536
aI38562377
aI4098637
aI4368975
aI42666576
aI39766609
aI35605075
aI41888341
aI10504790
aI42666583
aI42666584
aI14813785
aI21351003
aI42084956
aI41708125
aI41814622
aI42666591
aI41888352
aI31271524
aI10854
aI40430186
aI4054119
aI42207852
aI42666606
aI11913841
aI6015602
aI40430195
aI38349433
aI42666619
aI41265788
aI8749043
aI42666626
aI33530305
aI40168072
aI41970796
aI25389706
aI15690379
aI37571213
aI41880207
aI12167826
aI43063175
aI40430229
aI15452822
aI20892313
aI26880666
aI41216667
aI44001050
aI40430241
aI26157799
aI15452836
aI40430246
aI25168551
aI50972
aI40430251
aI4033196
aI33983151
aI41822898
aI8358580
aI43387573
aI40430263
aI41765562
aI40766140
aI41552574
aI21832516
aI41560770
aI41839301
aI10488519
aI4115144
aI27338
aI41978573
aI748238
aI30223056
aI42625745
aI41872086
aI26192607
aI41626338
aI31271652
aI10439401
aI21285610
aI37292784
aI658161
aI37717732
aI84727
aI42625785
aI25717502
aI1108735
aI11008
aI41560836
aI24201990
aI559880
aI33032969
aI43063179
aI25668366
aI17730319
aI412433
aI1329942
aI41765655
aI26127128
aI9448219
aI3230492
aI33535159
aI42625823
aI21556000
aI6803931
aI40679879
aI42625831
aI31746857
aI3189546
aI32808071
aI35989384
aI41896755
aI3623732
aI11063
aI30518072
aI26626873
aI42625852
aI25922365
aI15895358
aI19098431
aI41339714
aI7340513
aI41970509
aI445266
aI34573140
aI42625877
aI41687812
aI26187577
aI3623768
aI3189594
aI8141967
aI42142556
aI41929566
aI38120287
aI25045856
aI2478326
aI41801531
aI39529322
aI39043559
aI12528493
aI4524911
aI41929587
aI28226121
aI42625912
aI4459386
aI41879359
aI42625917
aI41929600
aI41864066
aI43174788
aI34966407
aI7121800
aI10013577
aI3959690
aI4524939
aI3622722
aI14773134
aI41929615
aI11152
aI26315670
aI4172697
aI41929627
aI26127261
aI42077086
aI41375429
aI41438115
aI41061288
aI10767275
aI36662188
aI723885
aI27566
aI41421745
aI42193395
aI8776629
aI41659321
aI4107195
aI39786314
aI31239102
aI32549824
aI41929666
aI42429379
aI30174148
aI1128268
aI822218
aI4525004
aI3836879
aI20922872
aI3623890
aI41929891
aI41610198
aI43584471
aI3992536
aI31794540
aI37563354
aI36105180
aI42142686
aI25762981
aI40266720
aI44001104
aI25045986
aI41929699
aI1305572
aI38341605
aI41438187
aI41962477
aI961522
aI31615987
aI29633527
aI41929720
aI1674234
aI25914363
aI32943104
aI5204993
aI42019842
aI4066307
aI41929733
aI41632257
aI40070152
aI44001111
aI41962509
aI36908048
aI4328467
aI25086997
aI41953113
aI31304736
aI2141217
aI4148260
aI36011185
aI41981333
aI41929769
aI8506410
aI41716779
aI31476780
aI41520173
aI41856046
aI5680177
aI41809758
aI863286
aI7515191
aI37497915
aI39259196
aI40431929
aI1838142
aI1838143
aI1330241
aI44100
aI41978949
aI41864267
aI32197712
aI21646418
aI40176723
aI28257366
aI29674585
aI1027162
aI41856091
aI41909434
aI785595
aI41929830
aI3837034
aI41864300
aI41897069
aI41864381
aI5065841
aI40182062
aI1535093
aI650360
aI41565888
aI41871210
aI41929858
aI41888899
aI3206277
aI31067274
aI41577611
aI41921676
aI32989879
aI6188180
aI26389653
aI41921686
aI37626393
aI3624090
aI41692315
aI9069082
aI24224283
aI41495718
aI41875313
aI18295977
aI38710445
aI14550873
aI38710448
aI4205768
aI937139
aI39767220
aI36924597
aI41495753
aI41875316
aI4844732
aI24751293
aI41979070
aI24224560
aI888001
aI31067334
aI37604552
aI3837129
aI41916279
aI4099276
aI3049336
aI39284977
aI41446614
aI41954519
aI41958392
aI142556
aI30930810
aI41921758
aI41864416
aI40258785
aI26356962
aI35294437
aI101618
aI38956275
aI37604598
aI6130935
aI41708012
aI25799937
aI42020102
aI37620999
aI41880840
aI31762089
aI41585935
aI17845521
aI22424854
aI17632536
aI43247492
aI912669
aI5797013
aI27397411
aI41930022
aI41217244
aI36703531
aI42028336
aI43247496
aI37629235
aI41864500
aI42665865
aI31896002
aI17845567
aI38907201
aI42020162
aI21723019
aI6475076
aI15371600
aI14316088
aI11898195
aI41749845
aI3407076
aI42028379
aI40627548
aI38491091
aI40627552
aI17960291
aI40627556
aI40627562
aI41310098
aI298350
aI40627569
aI41749874
aI43063187
aI167284
aI40627574
aI9721748
aI37524031
aI40627581
aI36673429
aI40627584
aI3457
aI43247601
aI41875350
aI35041857
aI41930121
aI40627595
aI42028428
aI41962894
aI41831823
aI4361618
aI41971091
aI8899989
aI8654231
aI26742169
aI37604765
aI36113822
aI2616735
aI41831847
aI42143146
aI37604780
aI39333106
aI19134719
aI1379761
aI38669555
aI41928606
aI14938697
aI12152250
aI23170495
aI42625888
aI41979334
aI40652231
aI26979786
aI3665355
aI37604812
aI41971150
aI53837
aI41110996
aI43511255
aI35221251
aI41864665
aI29003226
aI5541341
aI5699636
aI31477216
aI126436
aI3729318
aI35417575
aI39304444
aI37867000
aI44538
aI568829
aI42003968
aI8351234
aI25057195
aI751300
aI37604609
aI16944651
aI17186050
aI42080642
aI39906831
aI1150481
aI41840146
aI44001119
aI40627734
aI33779226
aI40627739
aI1560095
aI41881124
aI40627750
aI8433194
aI36397
aI3687322
aI40627761
aI25955890
aI1527351
aI41610808
aI24825401
aI42020410
aI10314335
aI162154
aI41176638
aI42856009
aI41995851
aI36114345
aI36331637
aI41578070
aI38074297
aI6082139
aI40619615
aI27733601
aI11874
aI4442043
aI7086694
aI25366120
aI41928636
aI41995883
aI41987692
aI41899965
aI1708648
aI25226232
aI37473910
aI41856632
aI42028665
aI42503804
aI41995904
aI41873026
aI21950083
aI25955974
aI41971344
aI10120472
aI41299603
aI41864854
aI42413719
aI37809817
aI4124315
aI41958713
aI38850206
aI13551558
aI40627880
aI37252777
aI3092138
aI42053291
aI265901
aI25865902
aI24784157
aI38776497
aI41864886
aI40627895
aI40627899
aI38907581
aI25145075
aI40627905
aI192196
aI40627909
aI25824966
aI40627918
aI36138705
aI40627923
aI25980629
aI40627927
aI42159832
aI40185563
aI40627933
aI41758432
aI41847420
aI40627939
aI9809641
aI26226410
aI1117931
aI33083116
aI41971437
aI1855215
aI40627954
aI41838547
aI31477494
aI3428089
aI2895610
aI30600955
aI26881788
aI8711934
aI41881344
aI1072163
aI40185602
aI36351747
aI782084
aI38407942
aI40185610
aI41266955
aI25956108
aI40185626
aI42143516
aI28372767
aI42022875
aI42143525
aI37604657
aI17706794
aI42143531
aI40429499
aI41873199
aI42143539
aI32737305
aI32911158
aI42143546
aI41692990
aI40431425
aI26062658
aI41550475
aI40431428
aI40431429
aI40431431
aI41905992
aI40431433
aI40431955
aI40431436
aI40431437
aI40431440
aI25956178
aI40431443
aI40431444
aI14823255
aI159577
aI39120733
aI24645475
aI31043428
aI41652072
aI43247592
aI26283893
aI41488247
aI16797563
aI34990491
aI33746816
aI41963393
aI37547906
aI25993851
aI25956230
aI26275137
aI41971592
aI41994236
aI21818690
aI36073358
aI25448337
aI40431507
aI35934100
aI39292822
aI41906071
aI40431513
aI41987994
aI159643
aI16740252
aI25956253
aI12095391
aI40431521
aI30601122
aI40431523
aI25882533
aI40431527
aI40431528
aI15437737
aI21983146
aI41660332
aI6852525
aI77743
aI77745
aI31068084
aI8069790
aI42102710
aI528311
aI25956281
aI30470075
aI41889724
aI440405
aI19312575
aI22998980
aI41977847
aI26669005
aI40431567
aI40431568
aI40431569
aI40431570
aI40431571
aI40431572
aI4050901
aI40431574
aI43247609
aI30281693
aI2346975
aI37108105
aI4378595
aI94180
aI23777256
aI1077225
aI28151789
aI1077234
aI41996275
aI12201974
aI28889769
aI17108989
aI77826
aI1855492
aI41603079
aI41963529
aI42004491
aI40431632
aI40431633
aI26652690
aI41603091
aI41603093
aI41603094
aI41996311
aI41603098
aI38907931
aI17346591
aI42397728
aI26432176
aI21008421
aI26374185
aI41665643
aI41996339
aI41848884
aI3149882
aI41971771
aI42184764
aI43247627
aI29541046
aI4550726
aI41889865
aI28737777
aI29613411
aI41963607
aI5845080
aI1445980
aI41757960
aI21901407
aI40202337
aI26792035
aI40202340
aI26062949
aI42029160
aI40202349
aI43741296
aI41750641
aI9564275
aI40202356
aI4337782
aI41889912
aI40202361
aI40202363
aI37761148
aI110718
aI38908031
aI40431744
aI40431745
aI41308298
aI25170059
aI5992588
aI40202382
aI6918291
aI41881749
aI40431766
aI28332183
aI35314839
aI41899809
aI156359
aI22188206
aI21696689
aI41963698
aI28225719
aI4427961
aI41889978
aI41900063
aI26366142
aI41996481
aI32198851
aI26210500
aI1560773
aI2871494
aI143562
aI41849035
aI4788430
aI3134157
aI86224
aI40431825
aI41914578
aI40431827
aI40431828
aI40431829
aI40431830
aI40431831
aI26382555
aI16615461
aI41742560
aI31068387
aI43299044
aI41816785
aI41996523
aI3674350
aI42430703
aI4690161
aI40431858
aI44012243
aI40431860
aI40431861
aI40431862
aI1886249
aI40431864
aI40431865
aI40431866
aI39907579
aI43741436
aI41996545
aI471299
aI43249925
aI397574
aI41909360
aI33952011
aI36761868
aI13431053
aI40431888
aI25826008
aI12013842
aI40431891
aI40431892
aI40431893
aI41247449
aI40431896
aI41996569
aI14427613
aI33335343
aI40431900
aI40431901
aI20188549
aI18250933
aI26186459
aI41906468
aI41996584
aI40431915
aI22851884
aI913710
aI44012253
aI29610289
aI2713787
aI40431926
aI24719671
aI40431928
aI41431353
aI41881914
aI40431931
aI40431932
aI40431933
aI40431934
aI40431935
aI25416000
aI25981664
aI43191691
aI6148421
aI24572641
aI41603402
aI32231757
aI40431953
aI40431954
aI9564499
aI40431956
aI40627598
aI43995478
aI12251479
aI43995481
aI40431962
aI40431963
aI43995484
aI1607928
aI40431967
aI40431968
aI14938467
aI43995492
aI43995494
aI7770471
aI32207209
aI18051435
aI31035759
aI2175344
aI12817128
aI41800051
aI43995510
aI40718711
aI13521272
aI354367
aI2659050
aI43995520
aI43995524
aI43995528
aI43995529
aI43995530
aI43995531
aI34696449
aI2150801
aI36688274
aI43159956
aI41901465
aI41963936
aI5919141
aI7223367
aI43536814
aI22769053
aI28332466
aI700852
aI41442719
aI41742780
aI41775554
aI25645509
aI9335245
aI14985293
aI9425363
aI41896014
aI3736313
aI3592665
aI42914267
aI113357
aI41739003
aI41996385
aI26202600
aI9581033
aI40431432
aI9335283
aI41808375
aI41924693
aI41554419
aI24544001
aI14316041
aI42103306
aI19141133
aI4631
aI33657371
aI12121791
aI8253983
aI20304416
aI42308132
aI33530630
aI41930161
aI5589084
aI21852717
aI17265357
aI5026356
aI7770677
aI7328312
aI14774846
aI4149823
aI3595429
aI41792068
aI9335365
aI4624969
aI41947722
aI890978
aI42054224
aI27988565
aI41906774
aI40377
aI41996427
aI42046043
aI12148154
aI36393570
aI31306340
aI32338534
aI31686297
aI41565870
aI42054254
aI4256368
aI36172406
aI11937393
aI28067569
aI25886400
aI43561597
aI38433407
aI30899648
aI12146795
aI34435718
aI42666617
aI38433419
aI38171285
aI14430872
aI9414767
aI21148
aI17601189
aI37876393
aI7197354
aI4051628
aI42029743
aI299696
aI33411762
aI42308276
aI38490807
aI26186425
aI44012220
aI29160125
aI4117183
aI4042187
aI44012230
aI31126215
aI44012233
aI41743050
aI41530061
aI42054350
aI42046161
aI38490834
aI41980627
aI24572629
aI41554647
aI4256472
aI3945178
aI24572635
aI4256477
aI44012254
aI24572639
aI44012256
aI34779873
aI25858786
aI7325819
aI2917570
aI4084457
aI4084458
aI26437757
aI2175731
aI38490875
aI54012
aI28267266
aI9589508
aI26153733
aI26822867
aI38490888
aI33534730
aI26955223
aI39899917
aI42054416
aI14709530
aI21082907
aI4893
aI13292321
aI8573730
aI38490920
aI5255978
aI18027309
aI27415342
aI27314605
aI41890611
aI10285876
aI13628217
aI40497978
aI488251
aI30937916
aI42160958
aI38490944
aI41872864
aI38754443
aI5856737
aI34542416
aI31159121
aI38490963
aI28267358
aI4051808
aI3576675
aI25539436
aI41388093
aI4658030
aI41382768
aI41382769
aI6222708
aI2298741
aI4256634
aI2880385
aI4043658
aI42963851
aI28267404
aI33534864
aI30880658
aI41227155
aI12030868
aI15588846
aI4256662
aI4057241
aI4043673
aI9842433
aI38548381
aI23950239
aI43217825
aI25080738
aI41956263
aI38491051
aI2708398
aI18882035
aI28890037
aI1651639
aI41767864
aI42718139
aI1930172
aI41898942
aI26227647
aI3978176
aI20919234
aI41554884
aI41710533
aI35692023
aI41153484
aI37876685
aI42054607
aI41980880
aI42062801
aI3630909
aI3142612
aI31634396
aI29003258
aI26242393
aI37761872
aI41710562
aI30696273
aI25826283
aI25080812
aI43783149
aI41571311
aI780055
aI26265768
aI32642036
aI38491125
aI33527977
aI28890106
aI1397756
aI1856513
aI4043780
aI42054663
aI15430664
aI42387628
aI41960396
aI8229901
aI332815
aI38466576
aI4051986
aI42008067
aI38802454
aI41899032
aI41628697
aI38491163
aI15004700
aI1233952
aI41530401
aI26116955
aI42054696
aI4052009
aI8351239
aI8180781
aI33944622
aI29070384
aI275506
aI1243315
aI1217591
aI41899064
aI1856569
aI23057469
aI4378059
aI496707
aI41874500
aI41899079
aI28890190
aI42013775
aI32863312
aI38155348
aI23254104
aI41669722
aI36761103
aI2012490
aI33535072
aI4469858
aI43247803
aI26186853
aI3658860
aI42988655
aI930928
aI33420403
aI41399412
aI19100789
aI38474870
aI31339639
aI41899129
aI644221
aI8164481
aI31487106
aI1610886
aI4060296
aI39163020
aI41301133
aI2176142
aI40170645
aI41899159
aI41874585
aI26244250
aI21623963
aI18707612
aI33535133
aI16677826
aI3445923
aI36746405
aI41981094
aI42072242
aI1856681
aI33535150
aI6706351
aI38155440
aI28890289
aI40654004
aI41850039
aI39900345
aI4532426
aI42262645
aI595137
aI20919490
aI38155462
aI13554889
aI42349770
aI41997523
aI10007766
aI677081
aI31085786
aI41899229
aI32797920
aI19025446
aI382182
aI43247825
aI43185384
aI41923817
aI1586410
aI4510957
aI34002159
aI41677335
aI947442
aI41899251
aI7877878
aI28620024
aI32945402
aI41899259
aI41850111
aI12129536
aI22025473
aI2184452
aI41997579
aI668940
aI14087437
aI42032685
aI41571603
aI34149652
aI41309463
aI41899288
aI263044
aI39310622
aI1856799
aI38499616
aI40826146
aI41710883
aI39032100
aI18879784
aI41874729
aI26187053
aI39146799
aI41850161
aI42008115
aI33527092
aI177464
aI41442868
aI3028287
aI644418
aI41194820
aI27284805
aI26481991
aI41129290
aI18855244
aI41194829
aI31249742
aI29701455
aI7918929
aI5846356
aI37426518
aI8533336
aI31462746
aI41932124
aI9518650
aI25122143
aI40657808
aI33527138
aI13636963
aI31369446
aI1004904
aI31487338
aI1004907
aI10666800
aI40826223
aI35476853
aI16962934
aI10114427
aI1856893
aI41989503
aI41555329
aI9123202
aI9819030
aI34952582
aI29056577
aI16242059
aI4839891
aI5395855
aI31159696
aI972179
aI4216212
aI44001518
aI8254361
aI42522010
aI36320667
aI41899421
aI26105248
aI44001520
aI16201124
aI41850278
aI41946225
aI35120028
aI38754547
aI30012853
aI9508278
aI62905
aI40449467
aI41850300
aI41874877
aI26285503
aI31067723
aI16251126
aI42071706
aI15824331
aI259532
aI36877773
aI25302479
aI33535440
aI34379217
aI33895892
aI349655
aI36935129
aI41711066
aI20960733
aI43259360
aI41571810
aI41908583
aI27678183
aI41896759
aI42054567
aI41096684
aI15946780
aI31102451
aI41858548
aI2053623
aI41932280
aI6288889
aI14775803
aI36845052
aI40211967
aI3167744
aI25335297
aI333314
aI12539396
aI31159814
aI15202561
aI12695048
aI4314641
aI41825810
aI41793795
aI36828692
aI41907733
aI947734
aI25056791
aI41752096
aI42022439
aI41907753
aI41908487
aI169516
aI41768493
aI42032733
aI41973296
aI41768500
aI40829731
aI41375290
aI2496059
aI40378066
aI41653823
aI2971200
aI40431927
aI7145739
aI8623685
aI7992903
aI5699144
aI42210890
aI41956940
aI26293841
aI42071635
aI35870292
aI33535576
aI41875035
aI15390301
aI41375327
aI23361120
aI41530981
aI41309805
aI41899631
aI35010162
aI2840181
aI20928118
aI41481848
aI25867898
aI41710527
aI40334972
aI41375357
aI41932415
aI42718850
aI17380995
aI41559154
aI39297787
aI7001736
aI11015817
aI41309834
aI59671
aI41899661
aI1341075
aI9485934
aI36206234
aI28992453
aI10688166
aI42022567
aI41711277
aI41919432
aI37598901
aI41899703
aI25525876
aI41711293
aI1236597
aI1431232
aI30144193
aI13186755
aI43202244
aI21083845
aI751302
aI26285767
aI751304
aI2447049
aI41899722
aI26359500
aI42981069
aI13186767
aI4378232
aI440020
aI440021
aI41557625
aI41440985
aI41883357
aI41555678
aI5625567
aI440032
aI43497185
aI8648423
aI41971324
aI41441002
aI41678574
aI42071791
aI41883376
aI41899761
aI41916146
aI3634931
aI41375476
aI169719
aI36160468
aI3946794
aI38344451
aI41547524
aI42080006
aI41973511
aI71432
aI26523948
aI41375506
aI41711381
aI38678
aI8648472
aI11908897
aI42664474
aI22309
aI2176806
aI42104615
aI41883436
aI41375537
aI33666867
aI35895093
aI27973433
aI42071867
aI41212213
aI25846752
aI30930762
aI1693515
aI162504
aI35895117
aI259920
aI41899857
aI26122066
aI41883477
aI30930774
aI928057
aI22360
aI10000217
aI41711450
aI41645916
aI38106973
aI26285918
aI41457504
aI41711458
aI42915683
aI41946769
aI41875305
aI43063149
aI21550958
aI41875311
aI41973617
aI43063154
aI41875315
aI43063156
aI43063157
aI40834934
aI41875319
aI41875321
aI41875322
aI41875324
aI41875328
aI41875330
aI41875333
aI41875335
aI41875337
aI41875338
aI41909911
aI41875342
aI41875343
aI41899920
aI38352785
aI41875346
aI31299475
aI41932692
aI42017774
aI43063190
aI30726039
aI4200345
aI41711514
aI43063197
aI41899934
aI8689567
aI41834400
aI43063202
aI41899940
aI41858033
aI63401
aI9648042
aI14456747
aI6117293
aI26384303
aI20871496
aI41583603
aI37664694
aI30331892
aI41392060
aI26040253
aI30930878
aI41711551
aI41997526
aI42080194
aI41899974
aI3004363
aI41885851
aI1021904
aI41899995
aI5773276
aI41867230
aI41460731
aI41388219
aI26015717
aI3684327
aI5969898
aI4839403
aI9787373
aI21764078
aI41586344
aI2873332
aI42014709
aI22520
aI10434556
aI41900035
aI14620681
aI2253934
aI33527826
aI42014741
aI16275479
aI41613338
aI35772445
aI41392159
aI43063332
aI38950
aI3837617
aI11606057
aI43063338
aI38847495
aI41826348
aI41932847
aI22576
aI33527857
aI43063346
aI6658099
aI42014772
aI84318
aI41900088
aI43063353
aI43063355
aI39106621
aI41719871
aI31152195
aI41900101
aI440391
aI42072138
aI41442999
aI1144908
aI440398
aI12138575
aI38721617
aI42080338
aI29333588
aI3381333
aI31701085
aI37599327
aI42022406
aI40430123
aI2168930
aI41900131
aI33527910
aI42203242
aI15284583
aI37869676
aI39021
aI29497454
aI41924721
aI6764662
aI41971345
aI33527929
aI3950954
aI38754432
aI38690496
aI28737493
aI34953347
aI43063428
aI22526086
aI43063431
aI33527945
aI30251147
aI10393742
aI5814415
aI41719952
aI27924625
aI25917588
aI27153433
aI42072216
aI38754458
aI686239
aI33527968
aI38754466
aI42211389
aI645289
aI41916588
aI26278258
aI41556144
aI24287410
aI33527987
aI170164
aI31201462
aI41838502
aI41900216
aI3840185
aI2627774
aI33200322
aI407748
aI33528006
aI41941191
aI1005768
aI5728240
aI38754512
aI31283410
aI31004883
aI41388409
aI5462234
aI38754523
aI33528029
aI41990368
aI4774114
aI1927547
aI20789476
aI28211429
aI16136423
aI38754536
aI4091317
aI8838866
aI30600915
aI33528054
aI4060201
aI4200697
aI88314
aI41900286
aI194815
aI33528065
aI18938115
aI440583
aI34953481
aI41949453
aI15218959
aI34879760
aI1759506
aI25508117
aI33528087
aI1603870
aI6641952
aI41900321
aI38416091
aI342308
aI33528103
aI383272
aI8239402
aI42088748
aI18749741
aI35032797
aI33528116
aI34158901
aI41900343
aI41908536
aI2644288
aI41761163
aI41572678
aI18430280
aI33528137
aI661834
aI12671308
aI2359010
aI40229202
aI8853845
aI37664662
aI41851228
aI26376541
aI40829758
aI178532
aI19159399
aI18864490
aI34158956
aI33528173
aI39282
aI31455635
aI8959038
aI41900407
aI36583803
aI42100107
aI41906977
aI29383041
aI31283586
aI25115012
aI25953345
aI41900425
aI22010251
aI16710028
aI33096375
aI19093904
aI42210371
aI13588886
aI41900441
aI26286492
aI6142367
aI35593968
aI41978267
aI30661028
aI39360933
aI4610471
aI18151850
aI34085291
aI26993736
aI4676018
aI31652275
aI40114615
aI113080
aI37607866
aI41908667
aI15464892
aI13580733
aI40114622
aI11909567
aI41908673
aI41957826
aI31881670
aI219591
aI41908685
aI40114640
aI25967059
aI40114644
aI31947230
aI32328101
aI33798624
aI41925090
aI41957859
aI41920074
aI42069927
aI30276073
aI41556460
aI42023415
aI33528313
aI41443071
aI30456316
aI41898730
aI15063556
aI41157718
aI41900550
aI39721479
aI41458800
aI9828878
aI41982479
aI41875984
aI34109969
aI3832339
aI26081813
aI33528344
aI24320539
aI37542428
aI28080669
aI37591582
aI662047
aI42662434
aI42023460
aI113189
aI16456230
aI19880487
aI113198
aI41732625
aI41957936
aI55857
aI30546355
aI41302583
aI41302586
aI2112059
aI31275580
aI178749
aI31283774
aI41589311
aI34568768
aI6765121
aI41982531
aI41925188
aI940616
aI12106313
aI33528394
aI25147831
aI41876044
aI4422224
aI41949778
aI32086614
aI41900632
aI3684953
aI41802330
aI12106331
aI40851898
aI42031712
aI38410855
aI940648
aI8087996
aI41564780
aI38664813
aI1448558
aI41564783
aI41564785
aI41908853
aI4029046
aI72311
aI41564792
aI38673018
aI41900479
aI12106366
aI72319
aI12147329
aI34159234
aI18993527
aI41556613
aI41958024
aI41564809
aI42539658
aI41564812
aI40114626
aI41564815
aI41900689
aI41564819
aI12221077
aI38673046
aI9185732
aI38155375
aI1497757
aI12106398
aI41999007
aI17339102
aI26303137
aI17496739
aI41958054
aI42269351
aI25533098
aI1472967
aI25434797
aI41999022
aI42023599
aI41958065
aI41564850
aI41564851
aI41941684
aI41492358
aI42015418
aI28318395
aI41999037
aI41925311
aI41564864
aI39903008
aI41564867
aI41851588
aI41960566
aI17873606
aI29784775
aI33528520
aI16071370
aI64203
aI36084429
aI41589454
aI41967546
aI41934351
aI41974481
aI113362
aI21370011
aI41999061
aI28883672
aI40431508
aI41999073
aI41941731
aI42023656
aI9861867
aI42081005
aI42662638
aI41996462
aI42015472
aI26147569
aI41663218
aI41810675
aI41966330
aI41875347
aI3661610
aI29049984
aI3554051
aI41728772
aI41818885
aI38370058
aI9501451
aI41966348
aI41876237
aI25148176
aI41612931
aI41884438
aI31456023
aI3521306
aI34274076
aI42015517
aI41835296
aI41942832
aI41966371
aI38763300
aI2022181
aI31947560
aI39721
aI15147
aI41966380
aI3619629
aI42015534
aI42534937
aI41909045
aI40844086
aI30669623
aI80696
aI41737018
aI40844091
aI41761599
aI26652198
aI40844101
aI41202582
aI13327177
aI6765388
aI24451554
aI10459983
aI41816156
aI37083619
aI40844116
aI21715797
aI41909080
aI30104409
aI38312796
aI41897786
aI15614850
aI15702882
aI40844131
aI35666788
aI38476645
aI28883816
aI40844138
aI20874386
aI31284081
aI24410994
aI34265971
aI26254200
aI33529663
aI518521
aI41909121
aI41701589
aI41909126
aI41425801
aI42015631
aI41921725
aI21652620
aI36721672
aI41614231
aI41909144
aI41974684
aI211869
aI211870
aI2604869
aI211872
aI211874
aI41106339
aI3660711
aI41915548
aI41597867
aI72622
aI974664
aI41909172
aI42015678
aI4201410
aI13458374
aI26778567
aI12753868
aI38829007
aI29440978
aI4144084
aI8854009
aI7355353
aI38829019
aI3832797
aI26024928
aI41909217
aI33283042
aI38829028
aI31315111
aI26668882
aI43260911
aI9403382
aI744439
aI41466872
aI31407098
aI42023931
aI41909245
aI6585344
aI31210497
aI39230469
aI41958409
aI41762647
aI7185876
aI42287828
aI41761817
aI30766255
aI32800602
aI41909278
aI14949409
aI1080354
aI41958435
aI21290023
aI31489066
aI41909292
aI41581613
aI15789917
aI2047025
aI42007602
aI37403704
aI41909308
aI11571675
aI15176496
aI41958466
aI31210571
aI22735300
aI1637209
aI25762895
aI13941840
aI41942883
aI64014
aI436661
aI34356314
aI41884766
aI14941279
aI42609168
aI41794065
aI40182234
aI42032239
aI187504
aI41598068
aI9174134
aI40056
aI41909369
aI26492027
aI3144835
aI7535749
aI41958534
aI26025095
aI9673867
aI41720973
aI41909390
aI14802797
aI41819280
aI2791032
aI31407255
aI41909407
aI43924643
aI41720997
aI42077024
aI41909422
aI9510063
aI3652784
aI22715569
aI41614514
aI4054196
aI41958581
aI41991352
aI41573562
aI41958587
aI15260860
aI179390
aI7224514
aI41966548
aI31210692
aI30957242
aI42237131
aI1776845
aI37602770
aI4398293
aI25017558
aI41597943
aI4062424
aI41983194
aI41909472
aI15465700
aI25763045
aI35110118
aI33530128
aI41909487
aI41426167
aI41909497
aI4332796
aI30227713
aI19160322
aI34684163
aI41909509
aI9960712
aI3112201
aI42018007
aI41958671
aI26574175
aI41975065
aI4054298
aI5862618
aI40202390
aI31144496
aI14769444
aI11148581
aI4316454
aI42032429
aI1838984
aI12146882
aI9231668
aI41936094
aI17513783
aI41655608
aI25168436
aI32324923
aI41934140
aI26189120
aI712587
aI26156356
aI33529157
aI31210827
aI41958733
aI43212111
aI40431529
aI41909587
aI38850446
aI36420954
aI15794063
aI908636
aI41876026
aI12063973
aI42032481
aI41958755
aI31194469
aI41783185
aI41762153
aI2391402
aI41551079
aI18149290
aI17489265
aI17387411
aI33529209
aI39026044
aI2694529
aI40431510
aI17095233
aI41958792
aI40431511
aI7564
aI40335
aI27167212
aI34405784
aI10034585
aI33529245
aI41868702
aI163231
aI41442720
aI4160930
aI36650403
aI4111781
aI43247466
aI40099246
aI41983407
aI42032560
aI13639090
aI12453107
aI27975092
aI42113609
aI13589945
aI41442746
aI9821630
aI42007999
aI41958848
aI35888578
aI38624707
aI5548650
aI41557448
aI32562635
aI40431522
aI21257678
aI14630352
aI81361
aI41991634
aI41999828
aI19439063
aI41901529
aI34708956
aI1211869
aI28245470
aI1015264
aI11483728
aI33529317
aI712167
aI26779115
aI34995692
aI42212845
aI33938926
aI43063340
aI8920561
aI42666579
aI48630
aI41459191
aI36137171
aI23057663
aI7777285
aI33529341
aI42032640
aI41710848
aI12178906
aI37879299
aI48644
aI42089991
aI28245512
aI41459209
aI22535691
aI41991694
aI77741
aI33791506
aI36844991
aI15334936
aI4256482
aI13368859
aI41311776
aI3096097
aI42032674
aI26189349
aI35717041
aI12992040
aI36694620
aI32587308
aI41942962
aI31489582
aI13156275
aI42090036
aI16088633
aI41918010
aI42016315
aI38116924
aI41875920
aI40844864
aI13163104
aI41983554
aI16457286
aI25329224
aI27133196
aI40902223
aI41899653
aI26386784
aI17563222
aI22838871
aI13213626
aI15187555
aI41647718
aI40066663
aI43490922
aI33529451
aI36576876
aI14179950
aI41934447
aI859760
aI13418098
aI15842932
aI15433333
aI712310
aI41959032
aI21780
aI33947258
aI30105211
aI42666602
aI41877118
aI42032768
aI13033092
aI26189447
aI10804874
aI41877138
aI37879447
aI41877144
aI41914308
aI42352284
aI41877152
aI40378017
aI739953
aI17653419
aI18874028
aI28245677
aI28958382
aI41565872
aI42666611
aI40628
aI9526967
aI30957240
aI26050233
aI42032826
aI33529534
aI26214079
aI41623232
aI41565890
aI10968771
aI41565896
aI41565897
aI41981218
aI41565904
aI41565906
aI573139
aI41991894
aI25509591
aI7847641
aI12664539
aI43063348
aI27131618
aI40430203
aI7847652
aI42032872
aI41829553
aI33529578
aI41983723
aI11149037
aI21266160
aI38690545
aI278260
aI33529590
aI25100026
aI474875
aI41426687
aI35184385
aI2293506
aI41581185
aI40431575
aI30768910
aI31947462
aI20668183
aI41598744
aI26476316
aI42647328
aI26378017
aI8560423
aI41680682
aI34955055
aI42114864
aI10360273
aI42032948
aI41934648
aI34651964
aI30695229
aI14597951
aI38754559
aI10592068
aI26189637
aI37772189
aI229193
aI31620941
aI33341262
aI947512
aI25919315
aI42032981
aI3489623
aI8077146
aI42270555
aI28925793
aI42032994
aI41680739
aI7364452
aI8249194
aI41688939
aI2195309
aI23002990
aI30687087
aI38772594
aI18979475
aI34699841
aI37543800
aI26173307
aI30072702
aI1113221
aI26124164
aI35184517
aI41942918
aI12623753
aI41959307
aI38829965
aI24846223
aI43442069
aI1534617
aI37663897
aI41934745
aI42011290
aI33535301
aI8077216
aI40430235
aI41942951
aI26156969
aI41639851
aI4560648
aI42033071
aI16662449
aI6471602
aI13713331
aI3628983
aI1105850
aI25100221
aI1327038
aI32706
aI19450529
aI26285173
aI37246284
aI41762762
aI5816272
aI41959377
aI42089123
aI41369556
aI41792846
aI1428132
aI41982865
aI37928929
aI6766564
aI37513894
aI31260647
aI180200
aI393193
aI24027114
aI40430247
aI35104927
aI1089523
aI17620981
aI33021942
aI40431889
aI34529278
atp2
Rp3
.