c__builtin__
set
p0
((lp1
I40657808
aI83115
aI48644
aI77743
aI8351239
aI8351234
aI419342
aI38879250
aI36828692
aI36844991
aI4631
aI41628697
aI38491163
aI15946780
aI35772445
aI41392159
aI38487075
aI113189
aI38829007
aI40837980
aI41440985
aI169515
aI169516
aI41782829
aI113198
aI22576
aI32817
aI6658099
aI25168436
aI38480222
aI1217591
aI731192
aI40654004
aI41375290
aI41375327
aI113360
aI41388093
aI1838142
aI41787455
aI41394752
aI38585696
aI1451586
aI940616
aI12106313
aI38416091
aI180919
aI772173
aI12138575
aI13941840
aI41810675
aI41388120
aI41394778
aI12106331
aI36694620
aI41573562
aI31194469
aI11874
aI40429499
aI41647718
aI10854
aI940648
aI41388137
aI26265196
aI41309805
aI29497454
aI930928
aI41632371
aI41388149
aI38474870
aI72311
aI40056
aI41757305
aI41394811
aI19920508
aI41375357
aI41369726
aI72319
aI38754432
aI17380995
aI1610886
aI41369735
aI246920
aI11015817
aI41309834
aI41388171
aI38754498
aI2176142
aI2195309
aI26389653
aI5618839
aI40698521
aI38754458
aI40826223
aI12106398
aI187504
aI38754466
aI41388197
aI41375398
aI83112
aI354367
aI156359
aI35102892
aI41388206
aI41388207
aI38155440
aI37604552
aI1243315
aI180916
aI38490807
aI595137
aI41765562
aI41388219
aI888001
aI12146882
aI41375429
aI83870
aI41388231
aI162504
aI143562
aI41392060
aI113357
aI36877773
aI86224
aI650360
aI38490834
aI36137171
aI42196
aI37897430
aI49369
aI5462234
aI38754523
aI30223056
aI41388262
aI39032100
aI38754536
aI41441002
aI113362
aI658161
aI38754547
aI41375476
aI12106366
aI37604598
aI84727
aI33895892
aI88314
aI38490875
aI54012
aI27566
aI19134719
aI12129536
aI37604609
aI39412482
aI9564275
aI41973511
aI38490888
aI668940
aI169517
aI41375506
aI21780
aI34069
aI38678
aI41309463
aI517916
aI31507229
aI1603870
aI40826146
aI893219
aI342308
aI31238022
aI83238
aI37604657
aI38490920
aI39721
aI40902223
aI15147
aI38754512
aI28312877
aI28992302
aI25391
aI41375537
aI38297909
aI182153
aI83243
aI41881914
aI41692990
aI12152250
aI38490944
aI38754559
aI38754443
aI41194820
aI82757
aI26481991
aI82762
aI40429500
aI113485
aI41560399
aI2311504
aI148536
aI40229202
aI38490963
aI22360
aI25978713
aI42028379
aI4444
aI84318
aI71432
aI25045856
aI82785
aI38480229
aI30262228
aI42350
aI178749
aI180200
aI37604726
aI3049336
aI36703531
aI41429371
aI2582399
aI31004883
aI34699841
aI41425801
aI25068939
aI38829965
aI39527822
aI40335
aI11152
aI41783185
aI82755
aI39292822
aI211869
aI211870
aI163231
aI211872
aI211874
aI41493925
aI3729318
aI4610471
aI38312796
aI38491051
aI37604780
aI77741
aI72622
aI37604765
aI77745
aI5882291
aI4091317
aI41194829
aI113080
aI41659321
aI40851898
aI41442719
aI41429436
aI41265598
aI26227647
aI30899648
aI94180
aI28992453
aI40652231
aI32197712
aI1838143
aI169719
aI41153484
aI25068706
aI4098637
aI37602770
aI38491091
aI4144084
aI29003226
aI38829019
aI29003258
aI886693
aI961505
aI38829028
aI31532005
aI42195
aI41009640
aI41388284
aI38528850
aI961522
aI41108467
aI38491125
aI41429498
aI40211967
aI31508273
aI38552063
atp2
Rp3
.