(lp0
S'La_Crosse_encephalitis'
p1
aS'BCX4430'
p2
aS'Bunyaviridae'
p3
aS'Viral_hemorrhagic_fever'
p4
aS'Monkeypox'
p5
aS'TKM-Ebola'
p6
aS'Arenavirus'
p7
aS'Chikungunya'
p8
aS'Ross_River_virus'
p9
aS'Powassan_encephalitis'
p10
aS'Amur_virus'
p11
aS'Matthew_Lukwiya'
p12
aS'Patrick_Sawyer'
p13
aS'Zoonotic_viral_diseases'
p14
aS'Semliki_Forest_virus'
p15
aS'Filoviridae'
p16
aS'Responses_to_the_Ebola_virus_epidemic_in_West_Africa'
p17
aS'Mabalo_Lokela'
p18
aS'Henipavirus'
p19
aS'Hantavirus_hemorrhagic_fever_with_renal_syndrome'
p20
aS'Sheik_Umar_Khan'
p21
aS'2014_Ebola_virus_epidemic_in_Liberia'
p22
aS'Ebola_virus_epidemic_in_West_Africa'
p23
aS'Colorado_tick_fever'
p24
aS'Brincidofovir'
p25
aS'Ebola_Syndrome'
p26
aS'Ta\xc3\xaf_Forest_ebolavirus'
p27
aS'List_of_human_disease_case_fatality_rates'
p28
aS'Japanese_encephalitis'
p29
aS'Crisis_in_the_Hot_Zone'
p30
aS'Powassan_virus'
p31
aS'Ameyo_Adadevoh'
p32
aS'Reston_virus'
p33
aS'Lagos_bat_virus'
p34
aS'California_encephalitis_virus'
p35
aS'Zika_fever'
p36
aS'Ruth_Atkins'
p37
aS'Crimean\xe2\x80\x93Congo_hemorrhagic_fever'
p38
aS'Dobrava-Belgrade_virus'
p39
aS'Mosquito-borne_disease'
p40
aS'William_Pooley_(Ebola_patient)'
p41
aS'Kemerovo_tickborne_viral_fever'
p42
aS'Sudan_ebolavirus'
p43
aS'Hantavirus'
p44
aS'Marburg_virus'
p45
aS'Tick-borne_encephalitis_virus'
p46
aS'Ross_River_fever'
p47
aS'Venezuelan_equine_encephalitis_virus'
p48
aS'Alkhurma_virus'
p49
aS'Omsk_hemorrhagic_fever'
p50
aS'Ebolavirus'
p51
aS'Richard_Preston'
p52
aS'The_Hot_Zone'
p53
aS'Lassa_virus'
p54
aS'FGI-104'
p55
aS'Outbreak_(film)'
p56
aS'Kyasanur_forest_disease'
p57
aS'Brazilian_hemorrhagic_fever'
p58
aS'Dengue_fever'
p59
aS'Argentine_hemorrhagic_fever'
p60
aS"O\\'nyong\\'nyong_virus"
p61
aS'Venezuelan_hemorrhagic_fever'
p62
aS'Sin_Nombre_virus'
p63
aS'Rift_Valley_fever'
p64
aS'Rhabdoviridae'
p65
aS'Sindbis_virus'
p66
aS'Tick-borne_encephalitis'
p67
aS'ZMapp'
p68
aS'Favipiravir'
p69
aS'Bundibugyo_ebolavirus'
p70
aS'Yaba_monkey_tumor_virus'
p71
aS'Langat_virus'
p72
aS'Togaviridae'
p73
aS'Australian_bat_lyssavirus'
p74
aS'Lujo_virus'
p75
aS'Arbovirus_encephalitis'
p76
aS'Ebola'
p77
aS'2014_Ebola_virus_cases_in_the_United_States'
p78
aS'List_of_Ebola_outbreaks'
p79
aS'Reoviridae'
p80
aS'VSV-EBOV'
p81
aS'Marburg_virus_disease'
p82
aS'Paramyxoviridae'
p83
aS'Tanapox'
p84
aS'Hantaan_River_virus'
p85
aS'Peter_Piot'
p86
aS'Kunjin_virus'
p87
aS'Incubation_period'
p88
aS'Saint_Louis_encephalitis'
p89
aS'Murray_Valley_encephalitis_virus'
p90
aS'List_of_Ebola_patients'
p91
aS'Ebola_River'
p92
aS'West_Nile_virus'
p93
aS"Mayinga_N\\'Seka"
p94
aS'Pathogen'
p95
aS'2014_Ebola_virus_epidemic_in_Guinea'
p96
aS'Bolivian_hemorrhagic_fever'
p97
aS'Flaviviridae'
p98
aS'Human_T-lymphotropic_virus_1'
p99
aS'2014_Democratic_Republic_of_the_Congo_Ebola_virus_outbreak'
p100
aS'Executive_Orders'
p101
aS'Western_equine_encephalitis_virus'
p102
aS'Yellow_fever'
p103
aS'Bushmeat'
p104
aS'Junin_virus'
p105
aS'Andes_virus'
p106
aS'Banna_virus'
p107
aS'2014_Ebola_virus_epidemic_in_Sierra_Leone'
p108
aS'Sudan_virus'
p109
aS'Chandipura_virus'
p110
aS'Yambuku'
p111
aS'Lassa_fever'
p112
aS'Ngoy_Mushola'
p113
aS'Duvenhage_virus'
p114
aS'Simian_foamy_virus'
p115
aS'Herpes_B_virus'
p116
aS'Bundibugyo_virus'
p117
aS'Eastern_equine_encephalitis_virus'
p118
aS'Puumala_virus'
p119
aS'Ta\xc3\xaf_Forest_virus'
p120
aS'Natural_reservoir'
p121
aS'Ebola_virus_disease'
p122
aS'Aviation_accidents_and_incidents_in_2014'
p123
aS'TransAsia_Airways_Flight_222'
p124
aS'Nepal_Airlines_Flight_183'
p125
aS'MASkargo'
p126
aS'2014_Algeria_Lockheed_C-130_Hercules_crash'
p127
aS'Air_Alg\xc3\xa9rie_Flight_5017'
p128
aS'Phoenix_International_Holdings'
p129
aS'Flight_recorder'
p130
aS'Malaysia\xe2\x80\x93Singapore_Airlines'
p131
aS'RAAF_Base_Pearce'
p132
aS'Adam_Air_Flight_574'
p133
aS'List_of_aerial_disappearances'
p134
aS'List_of_unrecovered_flight_recorders'
p135
aS'List_of_aircraft_accidents_and_incidents_resulting_in_at_least_50_fatalities'
p136
aS'International_Charter_on_Space_and_Major_Disasters'
p137
aS'Bluefin-21'
p138
aS'2014_Romania_Britten-Norman_Islander_crash'
p139
aS'China_Southern_Airlines'
p140
aS'2014_Cessna_Citation_560_XLS+_crash'
p141
aS'Boeing_777'
p142
aS'2010s'
p143
aS'Comprehensive_Nuclear-Test-Ban_Treaty_Organization_Preparatory_Commission'
p144
aS'International_Air_Transport_Association'
p145
aS"2014_Lao_People\\'s_Liberation_Army_Air_Force_An-74_crash"
p146
aS'HMS_Tireless_(S88)'
p147
aS'Sepahan_Airlines_Flight_5915'
p148
aS'Inmarsat'
p149
aS'Aviation_accidents_and_incidents'
p150
aS'Pulau_Perak'
p151
aS'2014_Olsberg_mid-air_collision'
p152
aS'Malaysian_Airline_System_Flight_653'
p153
aS'Satellite_Data_Unit'
p154
aS'Firefly_(airline)'
p155
aS'Hishammuddin_Hussein'
p156
aS'Malaysian_Airline_System_Flight_684'
p157
aS'Malaysia_Airlines_destinations'
p158
aS'Malaysia_Airlines_fleet'
p159
aS'Malaysia_Airlines'
p160
aS'Air_France_Flight_447'
p161
aS'HMS_Echo_(H87)'
p162
aS'USS_Kidd_(DDG-100)'
p163
aS'2014_SOCATA_TBM_crash'
p164
aS'Haughey_Air_AgustaWestland_AW139_crash'
p165
aS'Search_and_rescue'
p166
aS'2014_748_Air_Services_HS_748_crash'
p167
aS'MASwings'
p168
aS'Malaysia_Airlines_Flight_2133'
p169
aS'Joint_Agency_Coordination_Centre'
p170
aS'Malaysia_Airlines_Flight_370'
p171
aS'China\xe2\x80\x93Malaysia_relations'
p172
aS'Search_for_Malaysia_Airlines_Flight_370'
p173
aS'ADV_Ocean_Shield'
p174
aS'Angus_Houston'
p175
aS'Shanghai_Pudong_International_Airport'
p176
aS'Tomnod'
p177
aS'MV_Fugro_Equator'
p178
aS'Ethiopian_Airlines_Flight_702'
p179
aS'Ukrainian_Air_Force_Ilyushin_Il-76_shoot-down'
p180
aS'Freescale_Semiconductor'
p181
aS'Aircraft_Communications_Addressing_and_Reporting_System'
p182
aS'Malaysia_Airlines_Flight_370_unofficial_disappearance_theories'
p183
aS'Pulau_Meranti'
p184
aS'International_reactions_to_the_Malaysia_Airlines_Flight_17_shootdown'
p185
aS'Malaysia_Airlines_Flight_17'
p186
aS'2022_Winter_Olympics'
p187
aS'1896_Summer_Olympics'
p188
aS'Winter_triathlon'
p189
aS'2024_Summer_Olympics'
p190
aS'David_Cameron'
p191
aS'2004_Summer_Olympics'
p192
aS'Denmark_at_the_2014_Winter_Olympics'
p193
aS'Alpine_skiing_at_the_2014_Winter_Olympics'
p194
aS'1976_Summer_Olympics'
p195
aS'Brian_Boitano'
p196
aS'Adler_railway_station'
p197
aS'Belgium_at_the_2014_Winter_Olympics'
p198
aS'Japan_at_the_2014_Winter_Olympics'
p199
aS'Sliding_Center_Sanki'
p200
aS'Sweden_at_the_2014_Winter_Olympics'
p201
aS'Monaco_at_the_2014_Winter_Olympics'
p202
aS'Germany_at_the_2014_Winter_Olympics'
p203
aS'1998_Winter_Olympics'
p204
aS'Bandy'
p205
aS'1940_Summer_Olympics'
p206
aS'1944_Summer_Olympics'
p207
aS'Dagomys_railway_station'
p208
aS'1994_Winter_Olympics'
p209
aS'Olympic_Games'
p210
aS'Vladimir_Putin'
p211
aS'Mzymta_River'
p212
aS'Kate_Hansen'
p213
aS'1952_Summer_Olympics'
p214
aS'National_Olympic_Committee'
p215
aS'Olympic_symbols'
p216
aS'1908_Summer_Olympics'
p217
aS'Armenia_at_the_2014_Winter_Olympics'
p218
aS'Thailand_at_the_2014_Winter_Olympics'
p219
aS'1944_Winter_Olympics'
p220
aS'Lazarevskaya_railway_station'
p221
aS'Bosnia_and_Herzegovina_at_the_2014_Winter_Olympics'
p222
aS'Russian_Olympic_Committee'
p223
aS'Indian_Olympic_Association'
p224
aS'Pierre_de_Coubertin_medal'
p225
aS'Bolshoy_Ice_Dome'
p226
aS'Canada_at_the_2014_Winter_Olympics'
p227
aS'Maria_Sharapova'
p228
aS'2028_Summer_Olympics'
p229
aS'Sochi_Light_Metro'
p230
aS'India_at_the_2014_Winter_Olympics'
p231
aS'Argentina_at_the_2014_Winter_Olympics'
p232
aS'Shayba_Arena'
p233
aS'Olympic_diploma'
p234
aS'LGBT_rights_protests_surrounding_the_2014_Winter_Olympics'
p235
aS'Andorra_at_the_2014_Winter_Olympics'
p236
aS'Guatemala_City'
p237
aS'Sochi_railway_station'
p238
aS'Formula_One'
p239
aS'Alina_Kabaeva'
p240
aS'San_Marino_at_the_2014_Winter_Olympics'
p241
aS'Figure_skating_at_the_2014_Winter_Olympics'
p242
aS'Turkey_at_the_2014_Winter_Olympics'
p243
aS'List_of_people_who_have_opened_the_Olympic_Games'
p244
aS'Intercalated_Games'
p245
aS'Port_of_Sochi'
p246
aS'2014_Winter_Olympics_events'
p247
aS'Cayman_Islands_at_the_2014_Winter_Olympics'
p248
aS'Serbia_at_the_2014_Winter_Olympics'
p249
aS'1996_Summer_Olympics'
p250
aS'Ski_jumping'
p251
aS'List_of_2014_Winter_Olympics_medal_winners'
p252
aS'Luxembourg_at_the_2014_Winter_Olympics'
p253
aS'Olympic_Games_ceremony'
p254
aS'Nepal_at_the_2014_Winter_Olympics'
p255
aS'2014_Winter_Olympics_Parade_of_Nations'
p256
aS'Olympic_Oath'
p257
aS'Belarus_at_the_2014_Winter_Olympics'
p258
aS'Russian_Grand_Prix'
p259
aS'2020_Summer_Olympics'
p260
aS'2014_Winter_Olympics_closing_ceremony'
p261
aS'Visa_Inc.'
p262
aS'List_of_Olympic_Games_host_cities'
p263
aS'Georgia_at_the_2014_Winter_Olympics'
p264
aS'British_Virgin_Islands_at_the_2014_Winter_Olympics'
p265
aS'Ice_Cube_Curling_Center'
p266
aS'2012_Summer_Olympics'
p267
aS'Sochi_2014_Olympic_and_Paralympic_Organizing_Committee'
p268
aS'Dokka_Umarov'
p269
aS'Philippines_at_the_2014_Winter_Olympics'
p270
aS'China_at_the_2014_Winter_Olympics'
p271
aS'Spain_at_the_2014_Winter_Olympics'
p272
aS'Iceberg_Skating_Palace'
p273
aS'Brazil_at_the_2014_Winter_Olympics'
p274
aS'1988_Winter_Olympics'
p275
aS'Estonia_at_the_2014_Winter_Olympics'
p276
aS'Cyprus_at_the_2014_Winter_Olympics'
p277
aS'Mongolia_at_the_2014_Winter_Olympics'
p278
aS'1972_Summer_Olympics'
p279
aS'LGBT_rights_in_Russia'
p280
aS'1968_Summer_Olympics'
p281
aS'Pride_House'
p282
aS'Lebanon_at_the_2014_Winter_Olympics'
p283
aS'Kyrgyzstan_at_the_2014_Winter_Olympics'
p284
aS'Lithuania_at_the_2014_Winter_Olympics'
p285
aS'1968_Winter_Olympics'
p286
aS'Olympic_Village'
p287
aS'Netherlands_at_the_2014_Winter_Olympics'
p288
aS'1936_Winter_Olympics'
p289
aS'Bermuda_at_the_2014_Winter_Olympics'
p290
aS'Montenegro_at_the_2014_Winter_Olympics'
p291
aS'Bids_for_the_2014_Winter_Olympics'
p292
aS'Olympics'
p293
aS'Olympic_Stadium'
p294
aS'France_at_the_2014_Winter_Olympics'
p295
aS'Togo_at_the_2014_Winter_Olympics'
p296
aS'1932_Winter_Olympics'
p297
aS'Cross-country_skiing_at_the_2014_Winter_Olympics'
p298
aS'1952_Winter_Olympics'
p299
aS'1992_Winter_Olympics'
p300
aS'1980_Winter_Olympics'
p301
aS'Olympic_sports'
p302
aS'United_States_at_the_2014_Winter_Olympics'
p303
aS'Julia_Ioffe'
p304
aS'1948_Summer_Olympics'
p305
aS'Dmitry_Chernyshenko'
p306
aS'Ski_jumping_at_the_2014_Winter_Olympics'
p307
aS'Tajikistan_at_the_2014_Winter_Olympics'
p308
aS'International_Broadcast_Centre'
p309
aS'2026_Winter_Olympics'
p310
aS'1928_Summer_Olympics'
p311
aS'Chile_at_the_2014_Winter_Olympics'
p312
aS'2014_Winter_Olympics_torch_relay'
p313
aS'Moldova_at_the_2014_Winter_Olympics'
p314
aS'Romania_at_the_2014_Winter_Olympics'
p315
aS'Malta_at_the_2014_Winter_Olympics'
p316
aS'1984_Winter_Olympics'
p317
aS'Olympic_Charter'
p318
aS'Olympic_Park_railway_station,_Sochi'
p319
aS'Portugal_at_the_2014_Winter_Olympics'
p320
aS'Adler_Arena_Skating_Center'
p321
aS'Freestyle_skiing_at_the_2014_Winter_Olympics'
p322
aS'1932_Summer_Olympics'
p323
aS'Venues_of_the_2014_Winter_Olympics_and_Paralympics'
p324
aS'Sochi'
p325
aS'Finland_at_the_2014_Winter_Olympics'
p326
aS'1924_Winter_Olympics'
p327
aS'2010_Winter_Olympics'
p328
aS'Sportfive'
p329
aS'Fisht_Olympic_Stadium'
p330
aS'Luge_at_the_2014_Winter_Olympics'
p331
aS'Mario_&_Sonic_at_the_Sochi_2014_Olympic_Winter_Games'
p332
aS'Adlersky_City_District'
p333
aS'Russian_LGBT_propaganda_law'
p334
aS'Switzerland_at_the_2014_Winter_Olympics'
p335
aS'Yelena_Isinbayeva'
p336
aS'Greece_at_the_2014_Winter_Olympics'
p337
aS'Irina_Rodnina'
p338
aS'Slopestyle'
p339
aS'1916_Summer_Olympics'
p340
aS'Peru_at_the_2014_Winter_Olympics'
p341
aS'NBC'
p342
aS'Winter_Olympic_Games'
p343
aS'2002_Winter_Olympics'
p344
aS'1928_Winter_Olympics'
p345
aS'Circassians'
p346
aS'EventsAt2014WinterOlympics'
p347
aS'Boris_Nemtsov'
p348
aS'Tonga_at_the_2014_Winter_Olympics'
p349
aS'Italy_at_the_2014_Winter_Olympics'
p350
aS'Azerbaijan_at_the_2014_Winter_Olympics'
p351
aS'1964_Summer_Olympics'
p352
aS'Paraguay_at_the_2014_Winter_Olympics'
p353
aS'Czech_Republic_at_the_2014_Winter_Olympics'
p354
aS'2014_Winter_Olympics'
p355
aS'International_Olympic_Committee'
p356
aS'Great_Britain_at_the_2014_Winter_Olympics'
p357
aS'RusSki_Gorki_Jumping_Center'
p358
aS'2014_Winter_Olympic_venues'
p359
aS'Russia'
p360
aS'Nordic_combined_at_the_2014_Winter_Olympics'
p361
aS'Nations_at_the_2014_Winter_Olympics'
p362
aS'Iceland_at_the_2014_Winter_Olympics'
p363
aS'1960_Summer_Olympics'
p364
aS'World_and_Olympic_records_set_at_the_2014_Winter_Olympics'
p365
aS'Hong_Kong_at_the_2014_Winter_Olympics'
p366
aS'Venezuela_at_the_2014_Winter_Olympics'
p367
aS'Norway_at_the_2014_Winter_Olympics'
p368
aS'Bulgaria_at_the_2014_Winter_Olympics'
p369
aS'Hungary_at_the_2014_Winter_Olympics'
p370
aS'1988_Summer_Olympics'
p371
aS'2014_Winter_Olympics_medal_table'
p372
aS'1984_Summer_Olympics'
p373
aS"Curling_at_the_2014_Winter_Olympics_\xe2\x80\x93_Women\\'s_tournament"
p374
aS'1920_Summer_Olympics'
p375
aS'Chronological_summary_of_the_2014_Winter_Olympics'
p376
aS'2014_Winter_Paralympics'
p377
aS'1906_Intercalated_Games'
p378
aS'List_of_2014_Winter_Olympics_broadcasters'
p379
aS'Slovakia_at_the_2014_Winter_Olympics'
p380
aS'Figure_skating'
p381
aS'Lists_of_Olympic_medalists'
p382
aS'Imeretinsky_Valley'
p383
aS'2014_Winter_Olympics_closing_ceremony_flag_bearers'
p384
aS'Israel_at_the_2014_Winter_Olympics'
p385
aS"Ice_hockey_at_the_2014_Winter_Olympics_\xe2\x80\x93_Women\\'s_tournament"
p386
aS"Ice_hockey_at_the_2014_Winter_Olympics_\xe2\x80\x93_Men\\'s_tournament"
p387
aS'2000_Summer_Olympics'
p388
aS'Poland_at_the_2014_Winter_Olympics'
p389
aS'1980_Summer_Olympics'
p390
aS'Zoich'
p391
aS'Bids_for_Olympic_Games'
p392
aS'List_of_IOC_country_codes'
p393
aS'Virgin_Islands_at_the_2014_Winter_Olympics'
p394
aS'2014_Winter_Olympics_opening_ceremony'
p395
aS'Network_Ten'
p396
aS'Skeleton_at_the_2014_Winter_Olympics'
p397
aS'Sochi_International_Airport'
p398
aS'Concerns_and_controversies_at_the_2014_Winter_Olympics'
p399
aS'Olympic_medal'
p400
aS'MegaFon'
p401
aS'Sochi_bid_for_the_2014_Winter_Olympics'
p402
aS'Russia_at_the_2014_Winter_Olympics'
p403
aS'1904_Summer_Olympics'
p404
aS'List_of_Olympic_torch_relays'
p405
aS'Macedonia_at_the_2014_Winter_Olympics'
p406
aS'Pakistan_at_the_2014_Winter_Olympics'
p407
aS'Salzburg'
p408
aS'New_Zealand_at_the_2014_Winter_Olympics'
p409
aS'Krasnaya_Polyana_railway_station'
p410
aS'1992_Summer_Olympics'
p411
aS'Jamaica_at_the_2014_Winter_Olympics'
p412
aS'Holland_Heineken_House'
p413
aS'1956_Winter_Olympics'
p414
aS'1956_Summer_Olympics'
p415
aS'1960_Winter_Olympics'
p416
aS'1972_Winter_Olympics'
p417
aS'1976_Winter_Olympics'
p418
aS'Timor-Leste_at_the_2014_Winter_Olympics'
p419
aS'All-time_Olympic_Games_medal_table'
p420
aS'Caitlin_Cahow'
p421
aS'South_Korea_at_the_2014_Winter_Olympics'
p422
aS'Slovenia_at_the_2014_Winter_Olympics'
p423
aS'Snowboarding_at_the_2014_Winter_Olympics'
p424
aS'1936_Summer_Olympics'
p425
aS'Summer_Olympic_Games'
p426
aS'2006_Winter_Olympics'
p427
aS'2008_Summer_Olympics'
p428
aS'Kazakhstan_at_the_2014_Winter_Olympics'
p429
aS'1964_Winter_Olympics'
p430
aS'Chinese_Taipei_at_the_2014_Winter_Olympics'
p431
aS'Billie_Jean_King'
p432
aS'Dominica_at_the_2014_Winter_Olympics'
p433
aS'Krasnaya_Polyana,_Sochi,_Krasnodar_Krai'
p434
aS"Curling_at_the_2014_Winter_Olympics_\xe2\x80\x93_Men\\'s_tournament"
p435
aS'Morocco_at_the_2014_Winter_Olympics'
p436
aS'Ruslan_Zakharov'
p437
aS'Short_track_speed_skating_at_the_2014_Winter_Olympics'
p438
aS'Soyuz_TMA-11M'
p439
aS'2018_Winter_Olympics'
p440
aS'Laura_Biathlon_&_Ski_Complex'
p441
aS'Australia_at_the_2014_Winter_Olympics'
p442
aS'1940_Winter_Olympics'
p443
aS'1900_Summer_Olympics'
p444
aS'Liechtenstein_at_the_2014_Winter_Olympics'
p445
aS'Biathlon_at_the_2014_Winter_Olympics'
p446
aS'Uzbekistan_at_the_2014_Winter_Olympics'
p447
aS'Bobsleigh_at_the_2014_Winter_Olympics'
p448
aS'Austria_at_the_2014_Winter_Olympics'
p449
aS'Curling_at_the_2014_Winter_Olympics'
p450
aS'Rosa_Khutor_Extreme_Park'
p451
aS'Ireland_at_the_2014_Winter_Olympics'
p452
aS'Iran_at_the_2014_Winter_Olympics'
p453
aS'Vladislav_Tretiak'
p454
aS'Sochi_Autodrom'
p455
aS'1924_Summer_Olympics'
p456
aS'List_of_Olympic_venues'
p457
aS'1948_Winter_Olympics'
p458
aS'1912_Summer_Olympics'
p459
aS'Albania_at_the_2014_Winter_Olympics'
p460
aS'List_of_people_who_have_lit_the_Olympic_Cauldron'
p461
aS'Chelyabinsk_meteor'
p462
aS'2016_Summer_Olympics'
p463
aS'Zimbabwe_at_the_2014_Winter_Olympics'
p464
aS'Latvia_at_the_2014_Winter_Olympics'
p465
aS'2014_Winter_Olympic_and_Paralympic_Games_mascots'
p466
aS'Mexico_at_the_2014_Winter_Olympics'
p467
aS'Rosa_Khutor_Alpine_Resort'
p468
aS'Ukraine_at_the_2014_Winter_Olympics'
p469
aS'Ice_hockey_at_the_2014_Winter_Olympics'
p470
aS'Croatia_at_the_2014_Winter_Olympics'
p471
a.