(lp0
S'Alpine_skiing_at_the_2014_Winter_Olympics'
p1
aS'Germany_at_the_2014_Winter_Olympics'
p2
aS'India_at_the_2014_Winter_Olympics'
p3
aS'LGBT_rights_protests_surrounding_the_2014_Winter_Olympics'
p4
aS'Olympic_Oath'
p5
aS'Russian_Grand_Prix'
p6
aS'Dokka_Umarov'
p7
aS'LGBT_rights_in_Russia'
p8
aS'Netherlands_at_the_2014_Winter_Olympics'
p9
aS'Venues_of_the_2014_Winter_Olympics_and_Paralympics'
p10
aS'2010_Winter_Olympics'
p11
aS'Russian_LGBT_propaganda_law'
p12
aS'Winter_Olympic_Games'
p13
aS'2014_Winter_Olympics'
p14
aS'2014_Winter_Olympic_venues'
p15
aS'Russia'
p16
aS'2014_Winter_Olympics_medal_table'
p17
aS'Chronological_summary_of_the_2014_Winter_Olympics'
p18
aS'2014_Winter_Paralympics'
p19
aS'List_of_2014_Winter_Olympics_broadcasters'
p20
aS'2014_Winter_Olympics_opening_ceremony'
p21
aS'Network_Ten'
p22
aS'Concerns_and_controversies_at_the_2014_Winter_Olympics'
p23
aS'Holland_Heineken_House'
p24
aS'2008_Summer_Olympics'
p25
aS'Sochi_Autodrom'
p26
aS'Zimbabwe_at_the_2014_Winter_Olympics'
p27
aS'2014_Winter_Olympic_and_Paralympic_Games_mascots'
p28
a.