(lp0
S'Ebola_virus_epidemic_in_West_Africa'
p1
aS'Reston_virus'
p2
aS'Marburg_virus'
p3
aS'Ebolavirus'
p4
aS'Ebola'
p5
aS'List_of_Ebola_outbreaks'
p6
aS'Marburg_virus_disease'
p7
aS'2014_Ebola_virus_epidemic_in_Guinea'
p8
aS'2014_Democratic_Republic_of_the_Congo_Ebola_virus_outbreak'
p9
aS'Bushmeat'
p10
aS'Sudan_virus'
p11
aS'Ngoy_Mushola'
p12
aS'Bundibugyo_virus'
p13
a.