(lp0
S'Filoviridae'
p1
aS'Responses_to_the_Ebola_virus_epidemic_in_West_Africa'
p2
aS'Mabalo_Lokela'
p3
aS'2014_Ebola_virus_epidemic_in_Liberia'
p4
aS'Ebola_virus_epidemic_in_West_Africa'
p5
aS'Brincidofovir'
p6
aS'Ta\xc3\xaf_Forest_ebolavirus'
p7
aS'List_of_human_disease_case_fatality_rates'
p8
aS'Reston_virus'
p9
aS'Sudan_ebolavirus'
p10
aS'Marburg_virus'
p11
aS'Ebolavirus'
p12
aS'The_Hot_Zone'
p13
aS'FGI-104'
p14
aS'ZMapp'
p15
aS'Favipiravir'
p16
aS'Bundibugyo_ebolavirus'
p17
aS'Ebola'
p18
aS'2014_Ebola_virus_cases_in_the_United_States'
p19
aS'List_of_Ebola_outbreaks'
p20
aS'VSV-EBOV'
p21
aS'Marburg_virus_disease'
p22
aS'2014_Ebola_virus_epidemic_in_Guinea'
p23
aS'2014_Democratic_Republic_of_the_Congo_Ebola_virus_outbreak'
p24
aS'Executive_Orders'
p25
aS'Bushmeat'
p26
aS'2014_Ebola_virus_epidemic_in_Sierra_Leone'
p27
aS'Sudan_virus'
p28
aS'Yambuku'
p29
aS'Ngoy_Mushola'
p30
aS'Bundibugyo_virus'
p31
aS'Ta\xc3\xaf_Forest_virus'
p32
aS'Natural_reservoir'
p33
a.