(lp0
S'RAAF_Base_Pearce'
p1
aS'China_Southern_Airlines'
p2
aS'Boeing_777'
p3
aS'International_Air_Transport_Association'
p4
aS'Pulau_Perak'
p5
aS'Malaysia_Airlines'
p6
aS'Joint_Agency_Coordination_Centre'
p7
aS'Malaysia_Airlines_Flight_370'
p8
aS'Search_for_Malaysia_Airlines_Flight_370'
p9
aS'ADV_Ocean_Shield'
p10
aS'Angus_Houston'
p11
aS'Tomnod'
p12
aS'MV_Fugro_Equator'
p13
aS'Aircraft_Communications_Addressing_and_Reporting_System'
p14
aS'Malaysia_Airlines_Flight_370_unofficial_disappearance_theories'
p15
aS'Pulau_Meranti'
p16
a.