(lp0
S'Boeing_777'
p1
aS'Pulau_Perak'
p2
aS'Malaysia_Airlines'
p3
aS'Malaysia_Airlines_Flight_370'
p4
aS'Search_for_Malaysia_Airlines_Flight_370'
p5
aS'Tomnod'
p6
aS'Malaysia_Airlines_Flight_370_unofficial_disappearance_theories'
p7
a.