(lp0
S'India_at_the_2014_Winter_Olympics'
p1
aS'Venues_of_the_2014_Winter_Olympics_and_Paralympics'
p2
aS'2010_Winter_Olympics'
p3
aS'Russian_LGBT_propaganda_law'
p4
aS'Winter_Olympic_Games'
p5
aS'2014_Winter_Olympics'
p6
aS'2014_Winter_Olympic_venues'
p7
aS'2014_Winter_Paralympics'
p8
aS'List_of_2014_Winter_Olympics_broadcasters'
p9
aS'2014_Winter_Olympics_opening_ceremony'
p10
aS'Concerns_and_controversies_at_the_2014_Winter_Olympics'
p11
aS'2008_Summer_Olympics'
p12
aS'Sochi_Autodrom'
p13
aS'Zimbabwe_at_the_2014_Winter_Olympics'
p14
aS'2014_Winter_Olympic_and_Paralympic_Games_mascots'
p15
a.